GAS LISTING /tmp/ccByRObN.s 			page 1


   1              		.file	"_console.cpp"
   2              		.option pic
   3              		.option norelax
   4              		.text
   5              	.Ltext0:
   6              		.align	2
   7              		.globl	_ZN8_consoleC2Ev
   9              	_ZN8_consoleC2Ev:
  10              	.LFB46:
  11              		.file 1 "src/_console.cpp"
   1:src/_console.cpp **** //
   2:src/_console.cpp **** // Created by os on 8/22/22.
   3:src/_console.cpp **** //
   4:src/_console.cpp **** 
   5:src/_console.cpp **** #include "../h/_console.hpp"
   6:src/_console.cpp **** 
   7:src/_console.cpp **** _console::_console() {
  12              		.loc 1 7 1
  13              		.cfi_startproc
  14              	.LVL0:
  15 0000 130101FE 		addi	sp,sp,-32
  16              		.cfi_def_cfa_offset 32
  17 0004 233C1100 		sd	ra,24(sp)
  18 0008 23388100 		sd	s0,16(sp)
  19 000c 23349100 		sd	s1,8(sp)
  20              		.cfi_offset 1, -8
  21              		.cfi_offset 8, -16
  22              		.cfi_offset 9, -24
  23 0010 13040102 		addi	s0,sp,32
  24              		.cfi_def_cfa 8, 0
  25 0014 93040500 		mv	s1,a0
  26              	.LBB28:
   8:src/_console.cpp ****     head=tail=size=0;
  27              		.loc 1 8 5
  28              		.loc 1 8 19 is_stmt 0
  29 0018 232C0510 		sw	zero,280(a0)
  30              		.loc 1 8 14
  31 001c 232A0510 		sw	zero,276(a0)
  32              		.loc 1 8 9
  33 0020 23280510 		sw	zero,272(a0)
   9:src/_console.cpp ****     spaceAval=new Sem(SIZE);
  34              		.loc 1 9 5 is_stmt 1
  35              	.LVL1:
  36              	.LBB29:
  37              	.LBB30:
  38              		.file 2 "src/../h/_sem.hpp"
   1:src/../h/_sem.hpp **** //
   2:src/../h/_sem.hpp **** // Created by os on 8/19/22.
   3:src/../h/_sem.hpp **** //
   4:src/../h/_sem.hpp **** 
   5:src/../h/_sem.hpp **** #ifndef PROJECT_BASE_V1_1__SEM_HPP
   6:src/../h/_sem.hpp **** #define PROJECT_BASE_V1_1__SEM_HPP
   7:src/../h/_sem.hpp **** #include "list.hpp"
   8:src/../h/_sem.hpp **** #include "syscall_c.h"
   9:src/../h/_sem.hpp **** #include "tcb.hpp"
  10:src/../h/_sem.hpp **** #include "scheduler.hpp"
  11:src/../h/_sem.hpp **** 
GAS LISTING /tmp/ccByRObN.s 			page 2


  12:src/../h/_sem.hpp **** 
  13:src/../h/_sem.hpp **** class Sem {
  14:src/../h/_sem.hpp **** public:
  15:src/../h/_sem.hpp ****     friend class Riscv;
  16:src/../h/_sem.hpp ****     Sem(unsigned initval=1):val(initval),closed(false){}
  17:src/../h/_sem.hpp ****     //static Sem* createSem(unsigned initval=1);
  18:src/../h/_sem.hpp ****     ~Sem();
  19:src/../h/_sem.hpp ****     int wait();
  20:src/../h/_sem.hpp ****     int signal();
  21:src/../h/_sem.hpp ****     int value() const{
  22:src/../h/_sem.hpp ****         return val;
  23:src/../h/_sem.hpp ****     }
  24:src/../h/_sem.hpp ****     void* operator new(uint64 n){
  25:src/../h/_sem.hpp ****         return MemoryAllocator::mem_alloc(n+ sizeof(MemoryAllocator::MemDescr));
  39              		.loc 2 25 9
  40              		.loc 2 25 42 is_stmt 0
  41 0024 13050005 		li	a0,80
  42              	.LVL2:
  43 0028 97000000 		call	_ZN15MemoryAllocator9mem_allocEm@plt
  43      E7800000 
  44              	.LVL3:
  45              	.LBE30:
  46              	.LBE29:
  47              	.LBB31:
  48              	.LBB32:
  16:src/../h/_sem.hpp ****     //static Sem* createSem(unsigned initval=1);
  49              		.loc 2 16 54
  50 0030 93070010 		li	a5,256
  51 0034 2320F500 		sw	a5,0(a0)
  52              	.LVL4:
  53              	.LBB33:
  54              	.LBB34:
  55              		.file 3 "src/../h/list.hpp"
   1:src/../h/list.hpp **** //
   2:src/../h/list.hpp **** // Created by os on 8/11/22.
   3:src/../h/list.hpp **** //
   4:src/../h/list.hpp **** 
   5:src/../h/list.hpp **** #ifndef PROJECT_BASE_V1_1_LIST_HPP
   6:src/../h/list.hpp **** #define PROJECT_BASE_V1_1_LIST_HPP
   7:src/../h/list.hpp **** #include "MemoryAllocator.hpp"
   8:src/../h/list.hpp **** 
   9:src/../h/list.hpp **** template<typename T>
  10:src/../h/list.hpp **** class List{
  11:src/../h/list.hpp **** private:
  12:src/../h/list.hpp ****     struct Elem{
  13:src/../h/list.hpp ****         T* data;
  14:src/../h/list.hpp ****         Elem* next;
  15:src/../h/list.hpp ****         time_t time;
  16:src/../h/list.hpp ****         Elem(T* data, Elem* next): data(data), next(next),time(0){}
  17:src/../h/list.hpp ****     };
  18:src/../h/list.hpp ****     Elem* head,*tail;
  19:src/../h/list.hpp ****     int size;
  20:src/../h/list.hpp **** public:
  21:src/../h/list.hpp **** 
  22:src/../h/list.hpp ****     int getSize() const {
  23:src/../h/list.hpp ****         return size;
  24:src/../h/list.hpp ****     }
GAS LISTING /tmp/ccByRObN.s 			page 3


  25:src/../h/list.hpp ****     List():head(0),tail(0),size(0){}
  56              		.loc 3 25 34
  57 0038 23340500 		sd	zero,8(a0)
  58 003c 23380500 		sd	zero,16(a0)
  59 0040 232C0500 		sw	zero,24(a0)
  60              	.LVL5:
  61              	.LBE34:
  62              	.LBE33:
  16:src/../h/_sem.hpp ****     //static Sem* createSem(unsigned initval=1);
  63              		.loc 2 16 54
  64 0044 23000502 		sb	zero,32(a0)
  65              	.LVL6:
  66              	.LBE32:
  67              	.LBE31:
  68              		.loc 1 9 14
  69 0048 23B0A400 		sd	a0,0(s1)
  10:src/_console.cpp ****     itemAval=new Sem(0);
  70              		.loc 1 10 5 is_stmt 1
  71              	.LVL7:
  72              	.LBB35:
  73              	.LBB36:
  74              		.loc 2 25 9
  75              		.loc 2 25 42 is_stmt 0
  76 004c 13050005 		li	a0,80
  77 0050 97000000 		call	_ZN15MemoryAllocator9mem_allocEm@plt
  77      E7800000 
  78              	.LVL8:
  79              	.LBE36:
  80              	.LBE35:
  81              	.LBB37:
  82              	.LBB38:
  16:src/../h/_sem.hpp ****     //static Sem* createSem(unsigned initval=1);
  83              		.loc 2 16 54
  84 0058 23200500 		sw	zero,0(a0)
  85              	.LVL9:
  86              	.LBB39:
  87              	.LBB40:
  88              		.loc 3 25 34
  89 005c 23340500 		sd	zero,8(a0)
  90 0060 23380500 		sd	zero,16(a0)
  91 0064 232C0500 		sw	zero,24(a0)
  92              	.LVL10:
  93              	.LBE40:
  94              	.LBE39:
  16:src/../h/_sem.hpp ****     //static Sem* createSem(unsigned initval=1);
  95              		.loc 2 16 54
  96 0068 23000502 		sb	zero,32(a0)
  97              	.LVL11:
  98              	.LBE38:
  99              	.LBE37:
 100              		.loc 1 10 13
 101 006c 23B4A400 		sd	a0,8(s1)
 102              	.LBE28:
  11:src/_console.cpp **** }
 103              		.loc 1 11 1
 104 0070 83308101 		ld	ra,24(sp)
 105              		.cfi_restore 1
GAS LISTING /tmp/ccByRObN.s 			page 4


 106 0074 03340101 		ld	s0,16(sp)
 107              		.cfi_restore 8
 108              		.cfi_def_cfa 2, 32
 109 0078 83348100 		ld	s1,8(sp)
 110              		.cfi_restore 9
 111              	.LVL12:
 112 007c 13010102 		addi	sp,sp,32
 113              		.cfi_def_cfa_offset 0
 114 0080 67800000 		jr	ra
 115              		.cfi_endproc
 116              	.LFE46:
 118              		.globl	_ZN8_consoleC1Ev
 119              		.set	_ZN8_consoleC1Ev,_ZN8_consoleC2Ev
 120              		.align	2
 121              		.globl	_ZN8_consoleD2Ev
 123              	_ZN8_consoleD2Ev:
 124              	.LFB49:
  12:src/_console.cpp **** 
  13:src/_console.cpp **** _console::~_console() {
 125              		.loc 1 13 1 is_stmt 1
 126              		.cfi_startproc
 127              		.cfi_personality 0x9b,DW.ref.__gxx_personality_v0
 128              		.cfi_lsda 0x1b,.LLSDA49
 129              	.LVL13:
 130 0084 130101FE 		addi	sp,sp,-32
 131              		.cfi_def_cfa_offset 32
 132 0088 233C1100 		sd	ra,24(sp)
 133 008c 23388100 		sd	s0,16(sp)
 134 0090 23349100 		sd	s1,8(sp)
 135 0094 23302101 		sd	s2,0(sp)
 136              		.cfi_offset 1, -8
 137              		.cfi_offset 8, -16
 138              		.cfi_offset 9, -24
 139              		.cfi_offset 18, -32
 140 0098 13040102 		addi	s0,sp,32
 141              		.cfi_def_cfa 8, 0
 142 009c 93040500 		mv	s1,a0
 143              	.LBB41:
  14:src/_console.cpp **** 
  15:src/_console.cpp ****     delete spaceAval;
 144              		.loc 1 15 5
 145              		.loc 1 15 12 is_stmt 0
 146 00a0 03390500 		ld	s2,0(a0)
 147              		.loc 1 15 21
 148 00a4 630E0900 		beqz	s2,.L4
 149              		.loc 1 15 12 discriminator 1
 150 00a8 13050900 		mv	a0,s2
 151              	.LVL14:
 152 00ac 97000000 		call	_ZN3SemD1Ev@plt
 152      E7800000 
 153              	.LVL15:
 154              	.LBB42:
 155              	.LBB43:
  26:src/../h/_sem.hpp ****     }
  27:src/../h/_sem.hpp ****     void* operator new[](uint64 n){
  28:src/../h/_sem.hpp ****         return MemoryAllocator::mem_alloc(n+ sizeof(MemoryAllocator::MemDescr));
  29:src/../h/_sem.hpp ****     }
GAS LISTING /tmp/ccByRObN.s 			page 5


  30:src/../h/_sem.hpp ****     void operator delete(void* p) noexcept{
  31:src/../h/_sem.hpp ****         MemoryAllocator::mem_free(p);
 156              		.loc 2 31 9 is_stmt 1 discriminator 1
 157              		.loc 2 31 34 is_stmt 0 discriminator 1
 158 00b4 13050900 		mv	a0,s2
 159 00b8 97000000 		call	_ZN15MemoryAllocator8mem_freeEPv@plt
 159      E7800000 
 160              	.LVL16:
 161              	.L4:
 162              	.LBE43:
 163              	.LBE42:
  16:src/_console.cpp ****     delete itemAval;
 164              		.loc 1 16 5 is_stmt 1
 165              		.loc 1 16 12 is_stmt 0
 166 00c0 83B48400 		ld	s1,8(s1)
 167              	.LVL17:
 168              		.loc 1 16 20
 169 00c4 638E0400 		beqz	s1,.L3
 170              		.loc 1 16 12 discriminator 1
 171 00c8 13850400 		mv	a0,s1
 172 00cc 97000000 		call	_ZN3SemD1Ev@plt
 172      E7800000 
 173              	.LVL18:
 174              	.LBB44:
 175              	.LBB45:
 176              		.loc 2 31 9 is_stmt 1 discriminator 1
 177              		.loc 2 31 34 is_stmt 0 discriminator 1
 178 00d4 13850400 		mv	a0,s1
 179 00d8 97000000 		call	_ZN15MemoryAllocator8mem_freeEPv@plt
 179      E7800000 
 180              	.LVL19:
 181              	.LBE45:
 182              	.LBE44:
  17:src/_console.cpp ****     head=tail=size=0;
 183              		.loc 1 17 5 is_stmt 1 discriminator 1
 184              	.L3:
 185              	.LBE41:
  18:src/_console.cpp **** }
 186              		.loc 1 18 1 is_stmt 0
 187 00e0 83308101 		ld	ra,24(sp)
 188              		.cfi_restore 1
 189 00e4 03340101 		ld	s0,16(sp)
 190              		.cfi_restore 8
 191              		.cfi_def_cfa 2, 32
 192 00e8 83348100 		ld	s1,8(sp)
 193              		.cfi_restore 9
 194 00ec 03390100 		ld	s2,0(sp)
 195              		.cfi_restore 18
 196 00f0 13010102 		addi	sp,sp,32
 197              		.cfi_def_cfa_offset 0
 198 00f4 67800000 		jr	ra
 199              		.cfi_endproc
 200              	.LFE49:
 201              		.globl	__gxx_personality_v0
 202              		.section	.gcc_except_table,"a",@progbits
 203              	.LLSDA49:
 204 0000 FF       		.byte	0xff
GAS LISTING /tmp/ccByRObN.s 			page 6


 205 0001 FF       		.byte	0xff
 206 0002 03       		.byte	0x3
 207 0003 00       		.byte	0
 208              		.text
 210              		.globl	_ZN8_consoleD1Ev
 211              		.set	_ZN8_consoleD1Ev,_ZN8_consoleD2Ev
 212              		.align	2
 213              		.globl	_ZN8_console8cons_getEv
 215              	_ZN8_console8cons_getEv:
 216              	.LFB51:
  19:src/_console.cpp **** 
  20:src/_console.cpp **** char _console::cons_get() {
 217              		.loc 1 20 27 is_stmt 1
 218              		.cfi_startproc
 219              	.LVL20:
 220 00f8 130101FE 		addi	sp,sp,-32
 221              		.cfi_def_cfa_offset 32
 222 00fc 233C1100 		sd	ra,24(sp)
 223 0100 23388100 		sd	s0,16(sp)
 224 0104 23349100 		sd	s1,8(sp)
 225 0108 23302101 		sd	s2,0(sp)
 226              		.cfi_offset 1, -8
 227              		.cfi_offset 8, -16
 228              		.cfi_offset 9, -24
 229              		.cfi_offset 18, -32
 230 010c 13040102 		addi	s0,sp,32
 231              		.cfi_def_cfa 8, 0
 232 0110 93040500 		mv	s1,a0
  21:src/_console.cpp ****     itemAval->wait();
 233              		.loc 1 21 5
 234              		.loc 1 21 19 is_stmt 0
 235 0114 03358500 		ld	a0,8(a0)
 236              	.LVL21:
 237 0118 97000000 		call	_ZN3Sem4waitEv@plt
 237      E7800000 
 238              	.LVL22:
  22:src/_console.cpp **** 
  23:src/_console.cpp ****     char c=buffer[head++];
 239              		.loc 1 23 5 is_stmt 1
 240              		.loc 1 23 19 is_stmt 0
 241 0120 03A70411 		lw	a4,272(s1)
 242              		.loc 1 23 23
 243 0124 9B071700 		addiw	a5,a4,1
 244              		.loc 1 23 25
 245 0128 3387E400 		add	a4,s1,a4
 246 012c 03490701 		lbu	s2,16(a4)
 247              	.LVL23:
  24:src/_console.cpp ****     head%=SIZE;
 248              		.loc 1 24 5 is_stmt 1
 249              		.loc 1 24 9 is_stmt 0
 250 0130 1BD7F741 		sraiw	a4,a5,31
 251 0134 1B578701 		srliw	a4,a4,24
 252 0138 BB87E700 		addw	a5,a5,a4
 253 013c 93F7F70F 		andi	a5,a5,255
 254 0140 BB87E740 		subw	a5,a5,a4
 255 0144 23A8F410 		sw	a5,272(s1)
  25:src/_console.cpp ****     size--;
GAS LISTING /tmp/ccByRObN.s 			page 7


 256              		.loc 1 25 5 is_stmt 1
 257 0148 83A78411 		lw	a5,280(s1)
 258              		.loc 1 25 9 is_stmt 0
 259 014c 9B87F7FF 		addiw	a5,a5,-1
 260 0150 23ACF410 		sw	a5,280(s1)
  26:src/_console.cpp **** 
  27:src/_console.cpp ****     spaceAval->signal();
 261              		.loc 1 27 5 is_stmt 1
 262              		.loc 1 27 22 is_stmt 0
 263 0154 03B50400 		ld	a0,0(s1)
 264 0158 97000000 		call	_ZN3Sem6signalEv@plt
 264      E7800000 
 265              	.LVL24:
  28:src/_console.cpp ****     return c;
 266              		.loc 1 28 5 is_stmt 1
  29:src/_console.cpp **** }
 267              		.loc 1 29 1 is_stmt 0
 268 0160 13050900 		mv	a0,s2
 269 0164 83308101 		ld	ra,24(sp)
 270              		.cfi_restore 1
 271 0168 03340101 		ld	s0,16(sp)
 272              		.cfi_restore 8
 273              		.cfi_def_cfa 2, 32
 274 016c 83348100 		ld	s1,8(sp)
 275              		.cfi_restore 9
 276              	.LVL25:
 277 0170 03390100 		ld	s2,0(sp)
 278              		.cfi_restore 18
 279              	.LVL26:
 280 0174 13010102 		addi	sp,sp,32
 281              		.cfi_def_cfa_offset 0
 282 0178 67800000 		jr	ra
 283              		.cfi_endproc
 284              	.LFE51:
 286              		.align	2
 287              		.globl	_ZN8_console8cons_putEc
 289              	_ZN8_console8cons_putEc:
 290              	.LFB52:
  30:src/_console.cpp **** 
  31:src/_console.cpp **** void _console::cons_put(char c) {
 291              		.loc 1 31 33 is_stmt 1
 292              		.cfi_startproc
 293              	.LVL27:
 294 017c 130101FE 		addi	sp,sp,-32
 295              		.cfi_def_cfa_offset 32
 296 0180 233C1100 		sd	ra,24(sp)
 297 0184 23388100 		sd	s0,16(sp)
 298 0188 23349100 		sd	s1,8(sp)
 299 018c 23302101 		sd	s2,0(sp)
 300              		.cfi_offset 1, -8
 301              		.cfi_offset 8, -16
 302              		.cfi_offset 9, -24
 303              		.cfi_offset 18, -32
 304 0190 13040102 		addi	s0,sp,32
 305              		.cfi_def_cfa 8, 0
 306 0194 93040500 		mv	s1,a0
 307 0198 13890500 		mv	s2,a1
GAS LISTING /tmp/ccByRObN.s 			page 8


  32:src/_console.cpp ****     spaceAval->wait();
 308              		.loc 1 32 5
 309              		.loc 1 32 20 is_stmt 0
 310 019c 03350500 		ld	a0,0(a0)
 311              	.LVL28:
 312 01a0 97000000 		call	_ZN3Sem4waitEv@plt
 312      E7800000 
 313              	.LVL29:
  33:src/_console.cpp **** 
  34:src/_console.cpp ****     buffer[tail++]=c;
 314              		.loc 1 34 5 is_stmt 1
 315              		.loc 1 34 12 is_stmt 0
 316 01a8 03A74411 		lw	a4,276(s1)
 317              		.loc 1 34 16
 318 01ac 9B071700 		addiw	a5,a4,1
 319              		.loc 1 34 19
 320 01b0 3387E400 		add	a4,s1,a4
 321 01b4 23082701 		sb	s2,16(a4)
  35:src/_console.cpp ****     tail%=SIZE;
 322              		.loc 1 35 5 is_stmt 1
 323              		.loc 1 35 9 is_stmt 0
 324 01b8 1BD7F741 		sraiw	a4,a5,31
 325 01bc 1B578701 		srliw	a4,a4,24
 326 01c0 BB87E700 		addw	a5,a5,a4
 327 01c4 93F7F70F 		andi	a5,a5,255
 328 01c8 BB87E740 		subw	a5,a5,a4
 329 01cc 23AAF410 		sw	a5,276(s1)
  36:src/_console.cpp ****     size++;
 330              		.loc 1 36 5 is_stmt 1
 331 01d0 83A78411 		lw	a5,280(s1)
 332              		.loc 1 36 9 is_stmt 0
 333 01d4 9B871700 		addiw	a5,a5,1
 334 01d8 23ACF410 		sw	a5,280(s1)
  37:src/_console.cpp **** 
  38:src/_console.cpp ****     itemAval->signal();
 335              		.loc 1 38 5 is_stmt 1
 336              		.loc 1 38 21 is_stmt 0
 337 01dc 03B58400 		ld	a0,8(s1)
 338 01e0 97000000 		call	_ZN3Sem6signalEv@plt
 338      E7800000 
 339              	.LVL30:
  39:src/_console.cpp **** }
 340              		.loc 1 39 1
 341 01e8 83308101 		ld	ra,24(sp)
 342              		.cfi_restore 1
 343 01ec 03340101 		ld	s0,16(sp)
 344              		.cfi_restore 8
 345              		.cfi_def_cfa 2, 32
 346 01f0 83348100 		ld	s1,8(sp)
 347              		.cfi_restore 9
 348              	.LVL31:
 349 01f4 03390100 		ld	s2,0(sp)
 350              		.cfi_restore 18
 351 01f8 13010102 		addi	sp,sp,32
 352              		.cfi_def_cfa_offset 0
 353 01fc 67800000 		jr	ra
 354              		.cfi_endproc
GAS LISTING /tmp/ccByRObN.s 			page 9


 355              	.LFE52:
 357              		.align	2
 358              		.globl	_ZNK8_console7getSizeEv
 360              	_ZNK8_console7getSizeEv:
 361              	.LFB53:
  40:src/_console.cpp **** 
  41:src/_console.cpp **** int _console::getSize() const {
 362              		.loc 1 41 31 is_stmt 1
 363              		.cfi_startproc
 364              	.LVL32:
 365 0200 130101FF 		addi	sp,sp,-16
 366              		.cfi_def_cfa_offset 16
 367 0204 23348100 		sd	s0,8(sp)
 368              		.cfi_offset 8, -8
 369 0208 13040101 		addi	s0,sp,16
 370              		.cfi_def_cfa 8, 0
  42:src/_console.cpp ****     return size;
 371              		.loc 1 42 5
  43:src/_console.cpp **** }
 372              		.loc 1 43 1 is_stmt 0
 373 020c 03258511 		lw	a0,280(a0)
 374              	.LVL33:
 375 0210 03348100 		ld	s0,8(sp)
 376              		.cfi_restore 8
 377              		.cfi_def_cfa 2, 16
 378 0214 13010101 		addi	sp,sp,16
 379              		.cfi_def_cfa_offset 0
 380 0218 67800000 		jr	ra
 381              		.cfi_endproc
 382              	.LFE53:
 384              		.align	2
 385              		.globl	_ZN8_console7sys_getEv
 387              	_ZN8_console7sys_getEv:
 388              	.LFB54:
  44:src/_console.cpp **** 
  45:src/_console.cpp **** char _console::sys_get() {
 389              		.loc 1 45 26 is_stmt 1
 390              		.cfi_startproc
 391              	.LVL34:
 392 021c 130101FE 		addi	sp,sp,-32
 393              		.cfi_def_cfa_offset 32
 394 0220 233C1100 		sd	ra,24(sp)
 395 0224 23388100 		sd	s0,16(sp)
 396 0228 23349100 		sd	s1,8(sp)
 397 022c 23302101 		sd	s2,0(sp)
 398              		.cfi_offset 1, -8
 399              		.cfi_offset 8, -16
 400              		.cfi_offset 9, -24
 401              		.cfi_offset 18, -32
 402 0230 13040102 		addi	s0,sp,32
 403              		.cfi_def_cfa 8, 0
 404 0234 93040500 		mv	s1,a0
  46:src/_console.cpp ****     sem_wait(itemAval);
 405              		.loc 1 46 5
 406              		.loc 1 46 13 is_stmt 0
 407 0238 03358500 		ld	a0,8(a0)
 408              	.LVL35:
GAS LISTING /tmp/ccByRObN.s 			page 10


 409 023c 97000000 		call	_Z8sem_waitP3Sem@plt
 409      E7800000 
 410              	.LVL36:
  47:src/_console.cpp **** 
  48:src/_console.cpp ****     char c=buffer[head++];
 411              		.loc 1 48 5 is_stmt 1
 412              		.loc 1 48 19 is_stmt 0
 413 0244 03A70411 		lw	a4,272(s1)
 414              		.loc 1 48 23
 415 0248 9B071700 		addiw	a5,a4,1
 416              		.loc 1 48 25
 417 024c 3387E400 		add	a4,s1,a4
 418 0250 03490701 		lbu	s2,16(a4)
 419              	.LVL37:
  49:src/_console.cpp ****     head%=SIZE;
 420              		.loc 1 49 5 is_stmt 1
 421              		.loc 1 49 9 is_stmt 0
 422 0254 1BD7F741 		sraiw	a4,a5,31
 423 0258 1B578701 		srliw	a4,a4,24
 424 025c BB87E700 		addw	a5,a5,a4
 425 0260 93F7F70F 		andi	a5,a5,255
 426 0264 BB87E740 		subw	a5,a5,a4
 427 0268 23A8F410 		sw	a5,272(s1)
  50:src/_console.cpp ****     size--;
 428              		.loc 1 50 5 is_stmt 1
 429 026c 83A78411 		lw	a5,280(s1)
 430              		.loc 1 50 9 is_stmt 0
 431 0270 9B87F7FF 		addiw	a5,a5,-1
 432 0274 23ACF410 		sw	a5,280(s1)
  51:src/_console.cpp **** 
  52:src/_console.cpp ****     sem_signal(spaceAval);
 433              		.loc 1 52 5 is_stmt 1
 434              		.loc 1 52 15 is_stmt 0
 435 0278 03B50400 		ld	a0,0(s1)
 436 027c 97000000 		call	_Z10sem_signalP3Sem@plt
 436      E7800000 
 437              	.LVL38:
  53:src/_console.cpp ****     return c;
 438              		.loc 1 53 5 is_stmt 1
  54:src/_console.cpp **** }
 439              		.loc 1 54 1 is_stmt 0
 440 0284 13050900 		mv	a0,s2
 441 0288 83308101 		ld	ra,24(sp)
 442              		.cfi_restore 1
 443 028c 03340101 		ld	s0,16(sp)
 444              		.cfi_restore 8
 445              		.cfi_def_cfa 2, 32
 446 0290 83348100 		ld	s1,8(sp)
 447              		.cfi_restore 9
 448              	.LVL39:
 449 0294 03390100 		ld	s2,0(sp)
 450              		.cfi_restore 18
 451              	.LVL40:
 452 0298 13010102 		addi	sp,sp,32
 453              		.cfi_def_cfa_offset 0
 454 029c 67800000 		jr	ra
 455              		.cfi_endproc
GAS LISTING /tmp/ccByRObN.s 			page 11


 456              	.LFE54:
 458              	.Letext0:
 459              		.file 4 "src/../h/../lib/hw.h"
 460              		.file 5 "src/../h/MemoryAllocator.hpp"
 461              		.file 6 "src/../h/syscall_c.h"
 462              		.file 7 "src/../h/tcb.hpp"
 463              		.file 8 "src/../h/_console.hpp"
 4378              		.align	3
 4381              	DW.ref.__gxx_personality_v0:
 4382 0000 00000000 		.dword	__gxx_personality_v0
 4382      00000000 
 4383              		.ident	"GCC: (Ubuntu 9.4.0-1ubuntu1~20.04) 9.4.0"
 4384              		.section	.note.GNU-stack,"",@progbits
GAS LISTING /tmp/ccByRObN.s 			page 12

