GAS LISTING /tmp/ccllLq3B.s 			page 1


   1              		.file	"_sem.cpp"
   2              		.option pic
   3              		.option norelax
   4              		.text
   5              	.Ltext0:
   6              		.align	2
   7              		.globl	_ZN3Sem5blockEv
   9              	_ZN3Sem5blockEv:
  10              	.LFB41:
  11              		.file 1 "src/_sem.cpp"
   1:src/_sem.cpp  **** //
   2:src/_sem.cpp  **** // Created by os on 8/19/22.
   3:src/_sem.cpp  **** //
   4:src/_sem.cpp  **** 
   5:src/_sem.cpp  **** #include "../h/_sem.hpp"
   6:src/_sem.cpp  **** 
   7:src/_sem.cpp  **** void Sem::block() {
  12              		.loc 1 7 19
  13              		.cfi_startproc
  14              	.LVL0:
  15 0000 130101FC 		addi	sp,sp,-64
  16              		.cfi_def_cfa_offset 64
  17 0004 233C1102 		sd	ra,56(sp)
  18 0008 23388102 		sd	s0,48(sp)
  19 000c 23349102 		sd	s1,40(sp)
  20 0010 23302103 		sd	s2,32(sp)
  21 0014 233C3101 		sd	s3,24(sp)
  22              		.cfi_offset 1, -8
  23              		.cfi_offset 8, -16
  24              		.cfi_offset 9, -24
  25              		.cfi_offset 18, -32
  26              		.cfi_offset 19, -40
  27 0018 13040104 		addi	s0,sp,64
  28              		.cfi_def_cfa 8, 0
  29 001c 13090500 		mv	s2,a0
   8:src/_sem.cpp  ****     TCB* old=TCB::running;
  30              		.loc 1 8 5
  31              		.loc 1 8 10 is_stmt 0
  32 0020 97070000 		la	a5,_ZN3TCB7runningE
  32      83B70700 
  33 0028 83B90700 		ld	s3,0(a5)
  34 002c 233434FD 		sd	s3,-56(s0)
   9:src/_sem.cpp  ****     blocked.addLast(old);
  35              		.loc 1 9 5 is_stmt 1
  36              		.loc 1 9 20 is_stmt 0
  37 0030 93048500 		addi	s1,a0,8
  38              	.LVL1:
  39              	.LBB7:
  40              	.LBB8:
  41              		.file 2 "src/../h/list.hpp"
   1:src/../h/list.hpp **** //
   2:src/../h/list.hpp **** // Created by os on 8/11/22.
   3:src/../h/list.hpp **** //
   4:src/../h/list.hpp **** 
   5:src/../h/list.hpp **** #ifndef PROJECT_BASE_V1_1_LIST_HPP
   6:src/../h/list.hpp **** #define PROJECT_BASE_V1_1_LIST_HPP
   7:src/../h/list.hpp **** #include "MemoryAllocator.hpp"
GAS LISTING /tmp/ccllLq3B.s 			page 2


   8:src/../h/list.hpp **** 
   9:src/../h/list.hpp **** template<typename T>
  10:src/../h/list.hpp **** class List{
  11:src/../h/list.hpp **** private:
  12:src/../h/list.hpp ****     struct Elem{
  13:src/../h/list.hpp ****         T* data;
  14:src/../h/list.hpp ****         Elem* next;
  15:src/../h/list.hpp ****         time_t time;
  16:src/../h/list.hpp ****         Elem(T* data, Elem* next): data(data), next(next),time(0){}
  17:src/../h/list.hpp ****     };
  18:src/../h/list.hpp ****     Elem* head,*tail;
  19:src/../h/list.hpp ****     int size;
  20:src/../h/list.hpp **** public:
  21:src/../h/list.hpp **** 
  22:src/../h/list.hpp ****     int getSize() const {
  23:src/../h/list.hpp ****         return size;
  24:src/../h/list.hpp ****     }
  25:src/../h/list.hpp ****     List():head(0),tail(0),size(0){}
  26:src/../h/list.hpp ****     List(const List<T>&) = delete;
  27:src/../h/list.hpp ****     List<T>& operator=(const List<T>&)=delete;
  28:src/../h/list.hpp ****     void addFirst(T* data){
  29:src/../h/list.hpp ****         //Elem* elem=new Elem(data,head);
  30:src/../h/list.hpp ****         Elem* elem=(Elem*)MemoryAllocator::mem_alloc(sizeof(Elem)+sizeof(MemoryAllocator::MemDescr)
  31:src/../h/list.hpp ****         elem->data=data;
  32:src/../h/list.hpp ****         elem->next=head;
  33:src/../h/list.hpp ****         head=elem;
  34:src/../h/list.hpp ****         if(tail) tail=head;
  35:src/../h/list.hpp ****         size++;
  36:src/../h/list.hpp ****     }
  37:src/../h/list.hpp ****     void addLast(T* data){
  38:src/../h/list.hpp ****         //Elem* elem=new Elem(data,0);
  39:src/../h/list.hpp ****         Elem* elem=(Elem*)MemoryAllocator::mem_alloc(sizeof(Elem)+sizeof(MemoryAllocator::MemDescr)
  42              		.loc 2 39 53
  43 0034 13050004 		li	a0,64
  44              	.LVL2:
  45 0038 97000000 		call	_ZN15MemoryAllocator9mem_allocEm@plt
  45      E7800000 
  46              	.LVL3:
  40:src/../h/list.hpp ****         elem->data=data;
  47              		.loc 2 40 9
  48 0040 23303501 		sd	s3,0(a0)
  41:src/../h/list.hpp ****         elem->next=nullptr;
  49              		.loc 2 41 9
  50 0044 23340500 		sd	zero,8(a0)
  42:src/../h/list.hpp ****         if(tail){
  51              		.loc 2 42 12
  52 0048 83B78400 		ld	a5,8(s1)
  53              		.loc 2 42 9
  54 004c 638C0704 		beqz	a5,.L2
  43:src/../h/list.hpp ****             tail->next=elem;
  55              		.loc 2 43 13
  56 0050 23B4A700 		sd	a0,8(a5)
  44:src/../h/list.hpp ****             tail=elem;
  57              		.loc 2 44 13
  58 0054 23B4A400 		sd	a0,8(s1)
  59              	.L3:
  45:src/../h/list.hpp ****         }
GAS LISTING /tmp/ccllLq3B.s 			page 3


  46:src/../h/list.hpp ****         else{
  47:src/../h/list.hpp ****             head=tail=elem;
  48:src/../h/list.hpp ****         }
  49:src/../h/list.hpp ****         size++;
  60              		.loc 2 49 9
  61 0058 83A70401 		lw	a5,16(s1)
  62 005c 9B871700 		addiw	a5,a5,1
  63 0060 23A8F400 		sw	a5,16(s1)
  64              	.LVL4:
  65              	.LBE8:
  66              	.LBE7:
  10:src/_sem.cpp  ****     TCB* newT=Scheduler::getInstance()->get();
  67              		.loc 1 10 5 is_stmt 1
  68              		.loc 1 10 44 is_stmt 0
  69 0064 97000000 		call	_ZN9Scheduler11getInstanceEv@plt
  69      E7800000 
  70              	.LVL5:
  71 006c 97000000 		call	_ZN9Scheduler3getEv@plt
  71      E7800000 
  72              	.LVL6:
  73              		.loc 1 10 45
  74 0074 2330A4FC 		sd	a0,-64(s0)
  11:src/_sem.cpp  ****     TCB::changeRunning(&old,&newT);
  75              		.loc 1 11 5 is_stmt 1
  76              		.loc 1 11 23 is_stmt 0
  77 0078 930504FC 		addi	a1,s0,-64
  78 007c 130584FC 		addi	a0,s0,-56
  79 0080 97000000 		call	_ZN3TCB13changeRunningEPPS_S1_@plt
  79      E7800000 
  80              	.LVL7:
  12:src/_sem.cpp  **** }
  81              		.loc 1 12 1
  82 0088 83308103 		ld	ra,56(sp)
  83              		.cfi_remember_state
  84              		.cfi_restore 1
  85 008c 03340103 		ld	s0,48(sp)
  86              		.cfi_restore 8
  87              		.cfi_def_cfa 2, 64
  88 0090 83348102 		ld	s1,40(sp)
  89              		.cfi_restore 9
  90 0094 03390102 		ld	s2,32(sp)
  91              		.cfi_restore 18
  92              	.LVL8:
  93 0098 83398101 		ld	s3,24(sp)
  94              		.cfi_restore 19
  95 009c 13010104 		addi	sp,sp,64
  96              		.cfi_def_cfa_offset 0
  97 00a0 67800000 		jr	ra
  98              	.LVL9:
  99              	.L2:
 100              		.cfi_restore_state
 101              	.LBB10:
 102              	.LBB9:
  47:src/../h/list.hpp ****         }
 103              		.loc 2 47 13
 104 00a4 23B4A400 		sd	a0,8(s1)
 105 00a8 2334A900 		sd	a0,8(s2)
GAS LISTING /tmp/ccllLq3B.s 			page 4


 106 00ac 6FF0DFFA 		j	.L3
 107              	.LBE9:
 108              	.LBE10:
 109              		.cfi_endproc
 110              	.LFE41:
 112              		.align	2
 113              		.globl	_ZN3Sem7deblockEv
 115              	_ZN3Sem7deblockEv:
 116              	.LFB42:
  13:src/_sem.cpp  **** 
  14:src/_sem.cpp  **** void Sem::deblock() {
 117              		.loc 1 14 21 is_stmt 1
 118              		.cfi_startproc
 119              	.LVL10:
 120 00b0 130101FE 		addi	sp,sp,-32
 121              		.cfi_def_cfa_offset 32
 122 00b4 233C1100 		sd	ra,24(sp)
 123 00b8 23388100 		sd	s0,16(sp)
 124 00bc 23349100 		sd	s1,8(sp)
 125 00c0 23302101 		sd	s2,0(sp)
 126              		.cfi_offset 1, -8
 127              		.cfi_offset 8, -16
 128              		.cfi_offset 9, -24
 129              		.cfi_offset 18, -32
 130 00c4 13040102 		addi	s0,sp,32
 131              		.cfi_def_cfa 8, 0
 132 00c8 93070500 		mv	a5,a0
  15:src/_sem.cpp  ****     TCB* thread=blocked.removeFirst();
 133              		.loc 1 15 5
 134              		.loc 1 15 36 is_stmt 0
 135 00cc 93048500 		addi	s1,a0,8
 136              	.LVL11:
 137              	.LBB13:
 138              	.LBB14:
  50:src/../h/list.hpp ****     }
  51:src/../h/list.hpp ****     T* removeFirst(){
  52:src/../h/list.hpp ****         if(!head) return 0;
 139              		.loc 2 52 13
 140 00d0 03358500 		ld	a0,8(a0)
 141              	.LVL12:
 142              		.loc 2 52 9
 143 00d4 630E0504 		beqz	a0,.L8
 144              	.LVL13:
  53:src/../h/list.hpp ****         Elem* elem=head;
  54:src/../h/list.hpp ****         head=head->next;
 145              		.loc 2 54 20
 146 00d8 03378500 		ld	a4,8(a0)
 147              		.loc 2 54 9
 148 00dc 23B4E700 		sd	a4,8(a5)
  55:src/../h/list.hpp ****         if(!head) tail=0;
 149              		.loc 2 55 9
 150 00e0 63040704 		beqz	a4,.L10
 151              	.L7:
  56:src/../h/list.hpp ****         T* ret=elem->data;
 152              		.loc 2 56 12
 153 00e4 03390500 		ld	s2,0(a0)
 154              	.LVL14:
GAS LISTING /tmp/ccllLq3B.s 			page 5


  57:src/../h/list.hpp ****         //delete elem;
  58:src/../h/list.hpp ****         MemoryAllocator::mem_free(elem);
 155              		.loc 2 58 34
 156 00e8 97000000 		call	_ZN15MemoryAllocator8mem_freeEPv@plt
 156      E7800000 
 157              	.LVL15:
  59:src/../h/list.hpp ****         size--;
 158              		.loc 2 59 9
 159 00f0 83A70401 		lw	a5,16(s1)
 160 00f4 9B87F7FF 		addiw	a5,a5,-1
 161 00f8 23A8F400 		sw	a5,16(s1)
 162              	.LVL16:
 163              	.L6:
 164              	.LBE14:
 165              	.LBE13:
  16:src/_sem.cpp  ****     Scheduler::getInstance()->put(thread);
 166              		.loc 1 16 5 is_stmt 1
 167              		.loc 1 16 34 is_stmt 0
 168 00fc 97000000 		call	_ZN9Scheduler11getInstanceEv@plt
 168      E7800000 
 169              	.LVL17:
 170 0104 93050900 		mv	a1,s2
 171 0108 97000000 		call	_ZN9Scheduler3putEP3TCB@plt
 171      E7800000 
 172              	.LVL18:
  17:src/_sem.cpp  **** }
 173              		.loc 1 17 1
 174 0110 83308101 		ld	ra,24(sp)
 175              		.cfi_remember_state
 176              		.cfi_restore 1
 177 0114 03340101 		ld	s0,16(sp)
 178              		.cfi_restore 8
 179              		.cfi_def_cfa 2, 32
 180 0118 83348100 		ld	s1,8(sp)
 181              		.cfi_restore 9
 182              	.LVL19:
 183 011c 03390100 		ld	s2,0(sp)
 184              		.cfi_restore 18
 185              	.LVL20:
 186 0120 13010102 		addi	sp,sp,32
 187              		.cfi_def_cfa_offset 0
 188 0124 67800000 		jr	ra
 189              	.LVL21:
 190              	.L10:
 191              		.cfi_restore_state
 192              	.LBB16:
 193              	.LBB15:
  55:src/../h/list.hpp ****         T* ret=elem->data;
 194              		.loc 2 55 19
 195 0128 23B40400 		sd	zero,8(s1)
 196 012c 6FF09FFB 		j	.L7
 197              	.LVL22:
 198              	.L8:
  52:src/../h/list.hpp ****         Elem* elem=head;
 199              		.loc 2 52 26
 200 0130 13090500 		mv	s2,a0
 201 0134 6FF09FFC 		j	.L6
GAS LISTING /tmp/ccllLq3B.s 			page 6


 202              	.LBE15:
 203              	.LBE16:
 204              		.cfi_endproc
 205              	.LFE42:
 207              		.align	2
 208              		.globl	_ZN3Sem4waitEv
 210              	_ZN3Sem4waitEv:
 211              	.LFB46:
  18:src/_sem.cpp  **** 
  19:src/_sem.cpp  **** Sem::~Sem() {
  20:src/_sem.cpp  ****     close();
  21:src/_sem.cpp  **** }
  22:src/_sem.cpp  **** 
  23:src/_sem.cpp  **** int Sem::wait() {
 212              		.loc 1 23 17 is_stmt 1
 213              		.cfi_startproc
 214              	.LVL23:
  24:src/_sem.cpp  ****     if(closed)
 215              		.loc 1 24 5
 216              		.loc 1 24 8 is_stmt 0
 217 0138 83470502 		lbu	a5,32(a0)
 218              		.loc 1 24 5
 219 013c 63920706 		bnez	a5,.L14
  23:src/_sem.cpp  ****     if(closed)
 220              		.loc 1 23 17
 221 0140 130101FE 		addi	sp,sp,-32
 222              		.cfi_def_cfa_offset 32
 223 0144 233C1100 		sd	ra,24(sp)
 224 0148 23388100 		sd	s0,16(sp)
 225 014c 23349100 		sd	s1,8(sp)
 226              		.cfi_offset 1, -8
 227              		.cfi_offset 8, -16
 228              		.cfi_offset 9, -24
 229 0150 13040102 		addi	s0,sp,32
 230              		.cfi_def_cfa 8, 0
 231 0154 93040500 		mv	s1,a0
  25:src/_sem.cpp  ****         return -1;
  26:src/_sem.cpp  ****     if(--val<0)
 232              		.loc 1 26 5 is_stmt 1
 233              		.loc 1 26 10 is_stmt 0
 234 0158 83270500 		lw	a5,0(a0)
 235              		.loc 1 26 8
 236 015c 9B87F7FF 		addiw	a5,a5,-1
 237              		.loc 1 26 13
 238 0160 2320F500 		sw	a5,0(a0)
 239              		.loc 1 26 5
 240 0164 13970702 		slli	a4,a5,32
 241 0168 63420702 		bltz	a4,.L20
 242              	.LVL24:
 243              	.L13:
  27:src/_sem.cpp  ****         block();
  28:src/_sem.cpp  ****     return (closed?-1:0);
 244              		.loc 1 28 5 is_stmt 1
 245              		.loc 1 28 13 is_stmt 0
 246 016c 83C70402 		lbu	a5,32(s1)
 247              		.loc 1 28 19
 248 0170 63940702 		bnez	a5,.L21
GAS LISTING /tmp/ccllLq3B.s 			page 7


 249 0174 13050000 		li	a0,0
 250              	.L12:
  29:src/_sem.cpp  **** }
 251              		.loc 1 29 1
 252 0178 83308101 		ld	ra,24(sp)
 253              		.cfi_remember_state
 254              		.cfi_restore 1
 255 017c 03340101 		ld	s0,16(sp)
 256              		.cfi_restore 8
 257              		.cfi_def_cfa 2, 32
 258 0180 83348100 		ld	s1,8(sp)
 259              		.cfi_restore 9
 260              	.LVL25:
 261 0184 13010102 		addi	sp,sp,32
 262              		.cfi_def_cfa_offset 0
 263 0188 67800000 		jr	ra
 264              	.LVL26:
 265              	.L20:
 266              		.cfi_restore_state
  27:src/_sem.cpp  ****         block();
 267              		.loc 1 27 9 is_stmt 1
  27:src/_sem.cpp  ****         block();
 268              		.loc 1 27 14 is_stmt 0
 269 018c 97000000 		call	_ZN3Sem5blockEv
 269      E7800000 
 270              	.LVL27:
 271 0194 6FF09FFD 		j	.L13
 272              	.L21:
  28:src/_sem.cpp  **** }
 273              		.loc 1 28 19
 274 0198 1305F0FF 		li	a0,-1
 275 019c 6FF0DFFD 		j	.L12
 276              	.LVL28:
 277              	.L14:
 278              		.cfi_def_cfa_register 2
 279              		.cfi_restore 1
 280              		.cfi_restore 8
 281              		.cfi_restore 9
  25:src/_sem.cpp  ****     if(--val<0)
 282              		.loc 1 25 17
 283 01a0 1305F0FF 		li	a0,-1
 284              	.LVL29:
 285              		.loc 1 29 1
 286 01a4 67800000 		ret
 287              		.cfi_endproc
 288              	.LFE46:
 290              		.align	2
 291              		.globl	_ZN3Sem6signalEv
 293              	_ZN3Sem6signalEv:
 294              	.LFB47:
  30:src/_sem.cpp  **** 
  31:src/_sem.cpp  **** int Sem::signal() {
 295              		.loc 1 31 19 is_stmt 1
 296              		.cfi_startproc
 297              	.LVL30:
  32:src/_sem.cpp  ****     if(closed) return -1;
 298              		.loc 1 32 5
GAS LISTING /tmp/ccllLq3B.s 			page 8


 299              		.loc 1 32 8 is_stmt 0
 300 01a8 83470502 		lbu	a5,32(a0)
 301              		.loc 1 32 5
 302 01ac 63940704 		bnez	a5,.L24
  33:src/_sem.cpp  ****     if(val++<0)
 303              		.loc 1 33 5 is_stmt 1
 304              		.loc 1 33 8 is_stmt 0
 305 01b0 83270500 		lw	a5,0(a0)
 306              		.loc 1 33 11
 307 01b4 1B871700 		addiw	a4,a5,1
 308 01b8 2320E500 		sw	a4,0(a0)
 309              		.loc 1 33 5
 310 01bc 63C60700 		bltz	a5,.L30
  34:src/_sem.cpp  ****         deblock();
  35:src/_sem.cpp  ****     return 0;
 311              		.loc 1 35 12
 312 01c0 13050000 		li	a0,0
 313              	.LVL31:
  36:src/_sem.cpp  **** }
 314              		.loc 1 36 1
 315 01c4 67800000 		ret
 316              	.LVL32:
 317              	.L30:
  31:src/_sem.cpp  ****     if(closed) return -1;
 318              		.loc 1 31 19
 319 01c8 130101FF 		addi	sp,sp,-16
 320              		.cfi_def_cfa_offset 16
 321 01cc 23341100 		sd	ra,8(sp)
 322 01d0 23308100 		sd	s0,0(sp)
 323              		.cfi_offset 1, -8
 324              		.cfi_offset 8, -16
 325 01d4 13040101 		addi	s0,sp,16
 326              		.cfi_def_cfa 8, 0
  34:src/_sem.cpp  ****         deblock();
 327              		.loc 1 34 9 is_stmt 1
  34:src/_sem.cpp  ****         deblock();
 328              		.loc 1 34 16 is_stmt 0
 329 01d8 97000000 		call	_ZN3Sem7deblockEv
 329      E7800000 
 330              	.LVL33:
  35:src/_sem.cpp  **** }
 331              		.loc 1 35 12
 332 01e0 13050000 		li	a0,0
 333              		.loc 1 36 1
 334 01e4 83308100 		ld	ra,8(sp)
 335              		.cfi_restore 1
 336 01e8 03340100 		ld	s0,0(sp)
 337              		.cfi_restore 8
 338              		.cfi_def_cfa 2, 16
 339 01ec 13010101 		addi	sp,sp,16
 340              		.cfi_def_cfa_offset 0
 341 01f0 67800000 		jr	ra
 342              	.LVL34:
 343              	.L24:
  32:src/_sem.cpp  ****     if(val++<0)
 344              		.loc 1 32 24
 345 01f4 1305F0FF 		li	a0,-1
GAS LISTING /tmp/ccllLq3B.s 			page 9


 346              	.LVL35:
 347 01f8 67800000 		ret
 348              		.cfi_endproc
 349              	.LFE47:
 351              		.align	2
 352              		.globl	_ZN3Sem5closeEv
 354              	_ZN3Sem5closeEv:
 355              	.LFB48:
  37:src/_sem.cpp  **** 
  38:src/_sem.cpp  **** int Sem::close() {
 356              		.loc 1 38 18 is_stmt 1
 357              		.cfi_startproc
 358              	.LVL36:
  39:src/_sem.cpp  ****     if(closed) return -1;
 359              		.loc 1 39 5
 360              		.loc 1 39 8 is_stmt 0
 361 01fc 83470502 		lbu	a5,32(a0)
 362              		.loc 1 39 5
 363 0200 6396070A 		bnez	a5,.L36
  38:src/_sem.cpp  ****     if(closed) return -1;
 364              		.loc 1 38 18
 365 0204 130101FC 		addi	sp,sp,-64
 366              		.cfi_def_cfa_offset 64
 367 0208 233C1102 		sd	ra,56(sp)
 368 020c 23388102 		sd	s0,48(sp)
 369 0210 23349102 		sd	s1,40(sp)
 370 0214 23302103 		sd	s2,32(sp)
 371 0218 233C3101 		sd	s3,24(sp)
 372 021c 23384101 		sd	s4,16(sp)
 373 0220 23345101 		sd	s5,8(sp)
 374 0224 23306101 		sd	s6,0(sp)
 375              		.cfi_offset 1, -8
 376              		.cfi_offset 8, -16
 377              		.cfi_offset 9, -24
 378              		.cfi_offset 18, -32
 379              		.cfi_offset 19, -40
 380              		.cfi_offset 20, -48
 381              		.cfi_offset 21, -56
 382              		.cfi_offset 22, -64
 383 0228 13040104 		addi	s0,sp,64
 384              		.cfi_def_cfa 8, 0
 385 022c 13090500 		mv	s2,a0
  40:src/_sem.cpp  ****     val=0;
 386              		.loc 1 40 5 is_stmt 1
 387              		.loc 1 40 8 is_stmt 0
 388 0230 23200500 		sw	zero,0(a0)
  41:src/_sem.cpp  ****     closed=true;
 389              		.loc 1 41 5 is_stmt 1
 390              		.loc 1 41 11 is_stmt 0
 391 0234 93071000 		li	a5,1
 392 0238 2300F502 		sb	a5,32(a0)
  42:src/_sem.cpp  ****     int size=blocked.getSize();
 393              		.loc 1 42 5 is_stmt 1
 394              	.LVL37:
 395              	.LBB22:
 396              	.LBB23:
  23:src/../h/list.hpp ****     }
GAS LISTING /tmp/ccllLq3B.s 			page 10


 397              		.loc 2 23 16 is_stmt 0
 398 023c 032B8501 		lw	s6,24(a0)
 399              	.LVL38:
 400              	.LBE23:
 401              	.LBE22:
  43:src/_sem.cpp  ****     for(int i=0;i<size;i++){
 402              		.loc 1 43 5 is_stmt 1
 403              	.LBB24:
 404              		.loc 1 43 13 is_stmt 0
 405 0240 93090000 		li	s3,0
 406 0244 6F004003 		j	.L35
 407              	.LVL39:
 408              	.L43:
 409              	.LBB25:
 410              	.LBB26:
  55:src/../h/list.hpp ****         T* ret=elem->data;
 411              		.loc 2 55 19
 412 0248 23340A00 		sd	zero,8(s4)
 413              	.L34:
  56:src/../h/list.hpp ****         //delete elem;
 414              		.loc 2 56 12
 415 024c 833A0500 		ld	s5,0(a0)
 416              	.LVL40:
  58:src/../h/list.hpp ****         size--;
 417              		.loc 2 58 34
 418 0250 97000000 		call	_ZN15MemoryAllocator8mem_freeEPv@plt
 418      E7800000 
 419              	.LVL41:
 420              		.loc 2 59 9
 421 0258 83270A01 		lw	a5,16(s4)
 422 025c 9B87F7FF 		addiw	a5,a5,-1
 423 0260 2328FA00 		sw	a5,16(s4)
 424              	.LVL42:
 425              	.L33:
 426              	.LBE26:
 427              	.LBE25:
  44:src/_sem.cpp  ****         Scheduler::getInstance()->put(blocked.removeFirst());
 428              		.loc 1 44 38
 429 0264 93850A00 		mv	a1,s5
 430 0268 13850400 		mv	a0,s1
 431 026c 97000000 		call	_ZN9Scheduler3putEP3TCB@plt
 431      E7800000 
 432              	.LVL43:
  43:src/_sem.cpp  ****         Scheduler::getInstance()->put(blocked.removeFirst());
 433              		.loc 1 43 5 is_stmt 1
 434 0274 9B891900 		addiw	s3,s3,1
 435              	.LVL44:
 436              	.L35:
  43:src/_sem.cpp  ****         Scheduler::getInstance()->put(blocked.removeFirst());
 437              		.loc 1 43 18 discriminator 3
 438 0278 63DE6903 		bge	s3,s6,.L37
 439              		.loc 1 44 9 discriminator 2
 440              		.loc 1 44 38 is_stmt 0 discriminator 2
 441 027c 97000000 		call	_ZN9Scheduler11getInstanceEv@plt
 441      E7800000 
 442              	.LVL45:
 443 0284 93040500 		mv	s1,a0
GAS LISTING /tmp/ccllLq3B.s 			page 11


 444 0288 130A8900 		addi	s4,s2,8
 445              	.LVL46:
 446              	.LBB28:
 447              	.LBB27:
  52:src/../h/list.hpp ****         Elem* elem=head;
 448              		.loc 2 52 13 discriminator 2
 449 028c 03358900 		ld	a0,8(s2)
  52:src/../h/list.hpp ****         Elem* elem=head;
 450              		.loc 2 52 9 discriminator 2
 451 0290 630A0500 		beqz	a0,.L38
 452              	.LVL47:
  54:src/../h/list.hpp ****         if(!head) tail=0;
 453              		.loc 2 54 20
 454 0294 83378500 		ld	a5,8(a0)
  54:src/../h/list.hpp ****         if(!head) tail=0;
 455              		.loc 2 54 9
 456 0298 2334F900 		sd	a5,8(s2)
  55:src/../h/list.hpp ****         T* ret=elem->data;
 457              		.loc 2 55 9
 458 029c E39807FA 		bnez	a5,.L34
 459 02a0 6FF09FFA 		j	.L43
 460              	.LVL48:
 461              	.L38:
  52:src/../h/list.hpp ****         Elem* elem=head;
 462              		.loc 2 52 26
 463 02a4 930A0500 		mv	s5,a0
 464 02a8 6FF0DFFB 		j	.L33
 465              	.LVL49:
 466              	.L36:
 467              		.cfi_def_cfa_register 2
 468              		.cfi_restore 1
 469              		.cfi_restore 8
 470              		.cfi_restore 9
 471              		.cfi_restore 18
 472              		.cfi_restore 19
 473              		.cfi_restore 20
 474              		.cfi_restore 21
 475              		.cfi_restore 22
 476              	.LBE27:
 477              	.LBE28:
 478              	.LBE24:
  39:src/_sem.cpp  ****     val=0;
 479              		.loc 1 39 24
 480 02ac 1305F0FF 		li	a0,-1
 481              	.LVL50:
  45:src/_sem.cpp  ****     }
  46:src/_sem.cpp  ****     return 0;
  47:src/_sem.cpp  **** }
 482              		.loc 1 47 1
 483 02b0 67800000 		ret
 484              	.LVL51:
 485              	.L37:
 486              		.cfi_def_cfa_register 8
 487              		.cfi_offset 1, -8
 488              		.cfi_offset 8, -16
 489              		.cfi_offset 9, -24
 490              		.cfi_offset 18, -32
GAS LISTING /tmp/ccllLq3B.s 			page 12


 491              		.cfi_offset 19, -40
 492              		.cfi_offset 20, -48
 493              		.cfi_offset 21, -56
 494              		.cfi_offset 22, -64
  46:src/_sem.cpp  **** }
 495              		.loc 1 46 12
 496 02b4 13050000 		li	a0,0
 497              		.loc 1 47 1
 498 02b8 83308103 		ld	ra,56(sp)
 499              		.cfi_restore 1
 500 02bc 03340103 		ld	s0,48(sp)
 501              		.cfi_restore 8
 502              		.cfi_def_cfa 2, 64
 503 02c0 83348102 		ld	s1,40(sp)
 504              		.cfi_restore 9
 505 02c4 03390102 		ld	s2,32(sp)
 506              		.cfi_restore 18
 507              	.LVL52:
 508 02c8 83398101 		ld	s3,24(sp)
 509              		.cfi_restore 19
 510              	.LVL53:
 511 02cc 033A0101 		ld	s4,16(sp)
 512              		.cfi_restore 20
 513 02d0 833A8100 		ld	s5,8(sp)
 514              		.cfi_restore 21
 515 02d4 033B0100 		ld	s6,0(sp)
 516              		.cfi_restore 22
 517              	.LVL54:
 518 02d8 13010104 		addi	sp,sp,64
 519              		.cfi_def_cfa_offset 0
 520 02dc 67800000 		jr	ra
 521              		.cfi_endproc
 522              	.LFE48:
 524              		.align	2
 525              		.globl	_ZN3SemD2Ev
 527              	_ZN3SemD2Ev:
 528              	.LFB44:
  19:src/_sem.cpp  ****     close();
 529              		.loc 1 19 1 is_stmt 1
 530              		.cfi_startproc
 531              		.cfi_personality 0x9b,DW.ref.__gxx_personality_v0
 532              		.cfi_lsda 0x1b,.LLSDA44
 533              	.LVL55:
 534 02e0 130101FF 		addi	sp,sp,-16
 535              		.cfi_def_cfa_offset 16
 536 02e4 23341100 		sd	ra,8(sp)
 537 02e8 23308100 		sd	s0,0(sp)
 538              		.cfi_offset 1, -8
 539              		.cfi_offset 8, -16
 540 02ec 13040101 		addi	s0,sp,16
 541              		.cfi_def_cfa 8, 0
 542              	.LBB29:
  20:src/_sem.cpp  **** }
 543              		.loc 1 20 5
  20:src/_sem.cpp  **** }
 544              		.loc 1 20 10 is_stmt 0
 545 02f0 97000000 		call	_ZN3Sem5closeEv
GAS LISTING /tmp/ccllLq3B.s 			page 13


 545      E7800000 
 546              	.LVL56:
 547              	.LBE29:
  21:src/_sem.cpp  **** 
 548              		.loc 1 21 1
 549 02f8 83308100 		ld	ra,8(sp)
 550              		.cfi_restore 1
 551 02fc 03340100 		ld	s0,0(sp)
 552              		.cfi_restore 8
 553              		.cfi_def_cfa 2, 16
 554 0300 13010101 		addi	sp,sp,16
 555              		.cfi_def_cfa_offset 0
 556 0304 67800000 		jr	ra
 557              		.cfi_endproc
 558              	.LFE44:
 559              		.globl	__gxx_personality_v0
 560              		.section	.gcc_except_table,"a",@progbits
 561              	.LLSDA44:
 562 0000 FF       		.byte	0xff
 563 0001 FF       		.byte	0xff
 564 0002 03       		.byte	0x3
 565 0003 00       		.byte	0
 566              		.text
 568              		.globl	_ZN3SemD1Ev
 569              		.set	_ZN3SemD1Ev,_ZN3SemD2Ev
 570              	.Letext0:
 571              		.file 3 "src/../h/../lib/hw.h"
 572              		.file 4 "src/../h/MemoryAllocator.hpp"
 573              		.file 5 "src/../h/syscall_c.h"
 574              		.file 6 "src/../h/tcb.hpp"
 575              		.file 7 "src/../h/_sem.hpp"
 576              		.file 8 "src/../h/scheduler.hpp"
 4592              		.align	3
 4595              	DW.ref.__gxx_personality_v0:
 4596 0000 00000000 		.dword	__gxx_personality_v0
 4596      00000000 
 4597              		.ident	"GCC: (Ubuntu 9.4.0-1ubuntu1~20.04) 9.4.0"
 4598              		.section	.note.GNU-stack,"",@progbits
GAS LISTING /tmp/ccllLq3B.s 			page 14


DEFINED SYMBOLS
                            *ABS*:0000000000000000 _sem.cpp
     /tmp/ccllLq3B.s:9      .text:0000000000000000 _ZN3Sem5blockEv
     /tmp/ccllLq3B.s:13     .text:0000000000000000 .L0 
     /tmp/ccllLq3B.s:15     .text:0000000000000000 .L0 
     /tmp/ccllLq3B.s:16     .text:0000000000000004 .L0 
     /tmp/ccllLq3B.s:22     .text:0000000000000018 .L0 
     /tmp/ccllLq3B.s:23     .text:0000000000000018 .L0 
     /tmp/ccllLq3B.s:24     .text:0000000000000018 .L0 
     /tmp/ccllLq3B.s:25     .text:0000000000000018 .L0 
     /tmp/ccllLq3B.s:26     .text:0000000000000018 .L0 
     /tmp/ccllLq3B.s:28     .text:000000000000001c .L0 
     /tmp/ccllLq3B.s:31     .text:0000000000000020 .L0 
     /tmp/ccllLq3B.s:32     .text:0000000000000020 .L0 
     /tmp/ccllLq3B.s:36     .text:0000000000000030 .L0 
     /tmp/ccllLq3B.s:37     .text:0000000000000030 .L0 
     /tmp/ccllLq3B.s:43     .text:0000000000000034 .L0 
     /tmp/ccllLq3B.s:48     .text:0000000000000040 .L0 
     /tmp/ccllLq3B.s:50     .text:0000000000000044 .L0 
     /tmp/ccllLq3B.s:52     .text:0000000000000048 .L0 
     /tmp/ccllLq3B.s:54     .text:000000000000004c .L0 
     /tmp/ccllLq3B.s:56     .text:0000000000000050 .L0 
     /tmp/ccllLq3B.s:58     .text:0000000000000054 .L0 
     /tmp/ccllLq3B.s:61     .text:0000000000000058 .L0 
     /tmp/ccllLq3B.s:68     .text:0000000000000064 .L0 
     /tmp/ccllLq3B.s:69     .text:0000000000000064 .L0 
     /tmp/ccllLq3B.s:74     .text:0000000000000074 .L0 
     /tmp/ccllLq3B.s:76     .text:0000000000000078 .L0 
     /tmp/ccllLq3B.s:77     .text:0000000000000078 .L0 
     /tmp/ccllLq3B.s:82     .text:0000000000000088 .L0 
     /tmp/ccllLq3B.s:83     .text:000000000000008c .L0 
     /tmp/ccllLq3B.s:84     .text:000000000000008c .L0 
     /tmp/ccllLq3B.s:86     .text:0000000000000090 .L0 
     /tmp/ccllLq3B.s:87     .text:0000000000000090 .L0 
     /tmp/ccllLq3B.s:89     .text:0000000000000094 .L0 
     /tmp/ccllLq3B.s:91     .text:0000000000000098 .L0 
     /tmp/ccllLq3B.s:94     .text:000000000000009c .L0 
     /tmp/ccllLq3B.s:96     .text:00000000000000a0 .L0 
     /tmp/ccllLq3B.s:100    .text:00000000000000a4 .L0 
     /tmp/ccllLq3B.s:104    .text:00000000000000a4 .L0 
     /tmp/ccllLq3B.s:109    .text:00000000000000b0 .L0 
     /tmp/ccllLq3B.s:115    .text:00000000000000b0 _ZN3Sem7deblockEv
     /tmp/ccllLq3B.s:118    .text:00000000000000b0 .L0 
     /tmp/ccllLq3B.s:120    .text:00000000000000b0 .L0 
     /tmp/ccllLq3B.s:121    .text:00000000000000b4 .L0 
     /tmp/ccllLq3B.s:126    .text:00000000000000c4 .L0 
     /tmp/ccllLq3B.s:127    .text:00000000000000c4 .L0 
     /tmp/ccllLq3B.s:128    .text:00000000000000c4 .L0 
     /tmp/ccllLq3B.s:129    .text:00000000000000c4 .L0 
     /tmp/ccllLq3B.s:131    .text:00000000000000c8 .L0 
     /tmp/ccllLq3B.s:134    .text:00000000000000cc .L0 
     /tmp/ccllLq3B.s:135    .text:00000000000000cc .L0 
     /tmp/ccllLq3B.s:140    .text:00000000000000d0 .L0 
     /tmp/ccllLq3B.s:143    .text:00000000000000d4 .L0 
     /tmp/ccllLq3B.s:146    .text:00000000000000d8 .L0 
     /tmp/ccllLq3B.s:148    .text:00000000000000dc .L0 
     /tmp/ccllLq3B.s:150    .text:00000000000000e0 .L0 
GAS LISTING /tmp/ccllLq3B.s 			page 15


     /tmp/ccllLq3B.s:153    .text:00000000000000e4 .L0 
     /tmp/ccllLq3B.s:156    .text:00000000000000e8 .L0 
     /tmp/ccllLq3B.s:159    .text:00000000000000f0 .L0 
     /tmp/ccllLq3B.s:167    .text:00000000000000fc .L0 
     /tmp/ccllLq3B.s:168    .text:00000000000000fc .L0 
     /tmp/ccllLq3B.s:174    .text:0000000000000110 .L0 
     /tmp/ccllLq3B.s:175    .text:0000000000000114 .L0 
     /tmp/ccllLq3B.s:176    .text:0000000000000114 .L0 
     /tmp/ccllLq3B.s:178    .text:0000000000000118 .L0 
     /tmp/ccllLq3B.s:179    .text:0000000000000118 .L0 
     /tmp/ccllLq3B.s:181    .text:000000000000011c .L0 
     /tmp/ccllLq3B.s:184    .text:0000000000000120 .L0 
     /tmp/ccllLq3B.s:187    .text:0000000000000124 .L0 
     /tmp/ccllLq3B.s:191    .text:0000000000000128 .L0 
     /tmp/ccllLq3B.s:195    .text:0000000000000128 .L0 
     /tmp/ccllLq3B.s:200    .text:0000000000000130 .L0 
     /tmp/ccllLq3B.s:204    .text:0000000000000138 .L0 
     /tmp/ccllLq3B.s:210    .text:0000000000000138 _ZN3Sem4waitEv
     /tmp/ccllLq3B.s:213    .text:0000000000000138 .L0 
     /tmp/ccllLq3B.s:215    .text:0000000000000138 .L0 
     /tmp/ccllLq3B.s:216    .text:0000000000000138 .L0 
     /tmp/ccllLq3B.s:217    .text:0000000000000138 .L0 
     /tmp/ccllLq3B.s:219    .text:000000000000013c .L0 
     /tmp/ccllLq3B.s:221    .text:0000000000000140 .L0 
     /tmp/ccllLq3B.s:222    .text:0000000000000144 .L0 
     /tmp/ccllLq3B.s:226    .text:0000000000000150 .L0 
     /tmp/ccllLq3B.s:227    .text:0000000000000150 .L0 
     /tmp/ccllLq3B.s:228    .text:0000000000000150 .L0 
     /tmp/ccllLq3B.s:230    .text:0000000000000154 .L0 
     /tmp/ccllLq3B.s:233    .text:0000000000000158 .L0 
     /tmp/ccllLq3B.s:234    .text:0000000000000158 .L0 
     /tmp/ccllLq3B.s:236    .text:000000000000015c .L0 
     /tmp/ccllLq3B.s:238    .text:0000000000000160 .L0 
     /tmp/ccllLq3B.s:240    .text:0000000000000164 .L0 
     /tmp/ccllLq3B.s:245    .text:000000000000016c .L0 
     /tmp/ccllLq3B.s:246    .text:000000000000016c .L0 
     /tmp/ccllLq3B.s:248    .text:0000000000000170 .L0 
     /tmp/ccllLq3B.s:252    .text:0000000000000178 .L0 
     /tmp/ccllLq3B.s:253    .text:000000000000017c .L0 
     /tmp/ccllLq3B.s:254    .text:000000000000017c .L0 
     /tmp/ccllLq3B.s:256    .text:0000000000000180 .L0 
     /tmp/ccllLq3B.s:257    .text:0000000000000180 .L0 
     /tmp/ccllLq3B.s:259    .text:0000000000000184 .L0 
     /tmp/ccllLq3B.s:262    .text:0000000000000188 .L0 
     /tmp/ccllLq3B.s:266    .text:000000000000018c .L0 
     /tmp/ccllLq3B.s:268    .text:000000000000018c .L0 
     /tmp/ccllLq3B.s:269    .text:000000000000018c .L0 
     /tmp/ccllLq3B.s:274    .text:0000000000000198 .L0 
     /tmp/ccllLq3B.s:278    .text:00000000000001a0 .L0 
     /tmp/ccllLq3B.s:279    .text:00000000000001a0 .L0 
     /tmp/ccllLq3B.s:280    .text:00000000000001a0 .L0 
     /tmp/ccllLq3B.s:281    .text:00000000000001a0 .L0 
     /tmp/ccllLq3B.s:283    .text:00000000000001a0 .L0 
     /tmp/ccllLq3B.s:286    .text:00000000000001a4 .L0 
     /tmp/ccllLq3B.s:287    .text:00000000000001a8 .L0 
     /tmp/ccllLq3B.s:293    .text:00000000000001a8 _ZN3Sem6signalEv
     /tmp/ccllLq3B.s:296    .text:00000000000001a8 .L0 
GAS LISTING /tmp/ccllLq3B.s 			page 16


     /tmp/ccllLq3B.s:298    .text:00000000000001a8 .L0 
     /tmp/ccllLq3B.s:299    .text:00000000000001a8 .L0 
     /tmp/ccllLq3B.s:300    .text:00000000000001a8 .L0 
     /tmp/ccllLq3B.s:302    .text:00000000000001ac .L0 
     /tmp/ccllLq3B.s:304    .text:00000000000001b0 .L0 
     /tmp/ccllLq3B.s:305    .text:00000000000001b0 .L0 
     /tmp/ccllLq3B.s:307    .text:00000000000001b4 .L0 
     /tmp/ccllLq3B.s:310    .text:00000000000001bc .L0 
     /tmp/ccllLq3B.s:312    .text:00000000000001c0 .L0 
     /tmp/ccllLq3B.s:315    .text:00000000000001c4 .L0 
     /tmp/ccllLq3B.s:319    .text:00000000000001c8 .L0 
     /tmp/ccllLq3B.s:320    .text:00000000000001cc .L0 
     /tmp/ccllLq3B.s:323    .text:00000000000001d4 .L0 
     /tmp/ccllLq3B.s:324    .text:00000000000001d4 .L0 
     /tmp/ccllLq3B.s:326    .text:00000000000001d8 .L0 
     /tmp/ccllLq3B.s:328    .text:00000000000001d8 .L0 
     /tmp/ccllLq3B.s:329    .text:00000000000001d8 .L0 
     /tmp/ccllLq3B.s:332    .text:00000000000001e0 .L0 
     /tmp/ccllLq3B.s:334    .text:00000000000001e4 .L0 
     /tmp/ccllLq3B.s:335    .text:00000000000001e8 .L0 
     /tmp/ccllLq3B.s:337    .text:00000000000001ec .L0 
     /tmp/ccllLq3B.s:338    .text:00000000000001ec .L0 
     /tmp/ccllLq3B.s:340    .text:00000000000001f0 .L0 
     /tmp/ccllLq3B.s:345    .text:00000000000001f4 .L0 
     /tmp/ccllLq3B.s:348    .text:00000000000001fc .L0 
     /tmp/ccllLq3B.s:354    .text:00000000000001fc _ZN3Sem5closeEv
     /tmp/ccllLq3B.s:357    .text:00000000000001fc .L0 
     /tmp/ccllLq3B.s:359    .text:00000000000001fc .L0 
     /tmp/ccllLq3B.s:360    .text:00000000000001fc .L0 
     /tmp/ccllLq3B.s:361    .text:00000000000001fc .L0 
     /tmp/ccllLq3B.s:363    .text:0000000000000200 .L0 
     /tmp/ccllLq3B.s:365    .text:0000000000000204 .L0 
     /tmp/ccllLq3B.s:366    .text:0000000000000208 .L0 
     /tmp/ccllLq3B.s:375    .text:0000000000000228 .L0 
     /tmp/ccllLq3B.s:376    .text:0000000000000228 .L0 
     /tmp/ccllLq3B.s:377    .text:0000000000000228 .L0 
     /tmp/ccllLq3B.s:378    .text:0000000000000228 .L0 
     /tmp/ccllLq3B.s:379    .text:0000000000000228 .L0 
     /tmp/ccllLq3B.s:380    .text:0000000000000228 .L0 
     /tmp/ccllLq3B.s:381    .text:0000000000000228 .L0 
     /tmp/ccllLq3B.s:382    .text:0000000000000228 .L0 
     /tmp/ccllLq3B.s:384    .text:000000000000022c .L0 
     /tmp/ccllLq3B.s:387    .text:0000000000000230 .L0 
     /tmp/ccllLq3B.s:388    .text:0000000000000230 .L0 
     /tmp/ccllLq3B.s:390    .text:0000000000000234 .L0 
     /tmp/ccllLq3B.s:391    .text:0000000000000234 .L0 
     /tmp/ccllLq3B.s:397    .text:000000000000023c .L0 
     /tmp/ccllLq3B.s:398    .text:000000000000023c .L0 
     /tmp/ccllLq3B.s:404    .text:0000000000000240 .L0 
     /tmp/ccllLq3B.s:405    .text:0000000000000240 .L0 
     /tmp/ccllLq3B.s:412    .text:0000000000000248 .L0 
     /tmp/ccllLq3B.s:415    .text:000000000000024c .L0 
     /tmp/ccllLq3B.s:418    .text:0000000000000250 .L0 
     /tmp/ccllLq3B.s:421    .text:0000000000000258 .L0 
     /tmp/ccllLq3B.s:429    .text:0000000000000264 .L0 
     /tmp/ccllLq3B.s:434    .text:0000000000000274 .L0 
     /tmp/ccllLq3B.s:438    .text:0000000000000278 .L0 
GAS LISTING /tmp/ccllLq3B.s 			page 17


     /tmp/ccllLq3B.s:440    .text:000000000000027c .L0 
     /tmp/ccllLq3B.s:441    .text:000000000000027c .L0 
     /tmp/ccllLq3B.s:449    .text:000000000000028c .L0 
     /tmp/ccllLq3B.s:451    .text:0000000000000290 .L0 
     /tmp/ccllLq3B.s:454    .text:0000000000000294 .L0 
     /tmp/ccllLq3B.s:456    .text:0000000000000298 .L0 
     /tmp/ccllLq3B.s:458    .text:000000000000029c .L0 
     /tmp/ccllLq3B.s:463    .text:00000000000002a4 .L0 
     /tmp/ccllLq3B.s:467    .text:00000000000002ac .L0 
     /tmp/ccllLq3B.s:468    .text:00000000000002ac .L0 
     /tmp/ccllLq3B.s:469    .text:00000000000002ac .L0 
     /tmp/ccllLq3B.s:470    .text:00000000000002ac .L0 
     /tmp/ccllLq3B.s:471    .text:00000000000002ac .L0 
     /tmp/ccllLq3B.s:472    .text:00000000000002ac .L0 
     /tmp/ccllLq3B.s:473    .text:00000000000002ac .L0 
     /tmp/ccllLq3B.s:474    .text:00000000000002ac .L0 
     /tmp/ccllLq3B.s:475    .text:00000000000002ac .L0 
     /tmp/ccllLq3B.s:480    .text:00000000000002ac .L0 
     /tmp/ccllLq3B.s:483    .text:00000000000002b0 .L0 
     /tmp/ccllLq3B.s:486    .text:00000000000002b4 .L0 
     /tmp/ccllLq3B.s:487    .text:00000000000002b4 .L0 
     /tmp/ccllLq3B.s:488    .text:00000000000002b4 .L0 
     /tmp/ccllLq3B.s:489    .text:00000000000002b4 .L0 
     /tmp/ccllLq3B.s:490    .text:00000000000002b4 .L0 
     /tmp/ccllLq3B.s:491    .text:00000000000002b4 .L0 
     /tmp/ccllLq3B.s:492    .text:00000000000002b4 .L0 
     /tmp/ccllLq3B.s:493    .text:00000000000002b4 .L0 
     /tmp/ccllLq3B.s:494    .text:00000000000002b4 .L0 
     /tmp/ccllLq3B.s:496    .text:00000000000002b4 .L0 
     /tmp/ccllLq3B.s:498    .text:00000000000002b8 .L0 
     /tmp/ccllLq3B.s:499    .text:00000000000002bc .L0 
     /tmp/ccllLq3B.s:501    .text:00000000000002c0 .L0 
     /tmp/ccllLq3B.s:502    .text:00000000000002c0 .L0 
     /tmp/ccllLq3B.s:504    .text:00000000000002c4 .L0 
     /tmp/ccllLq3B.s:506    .text:00000000000002c8 .L0 
     /tmp/ccllLq3B.s:509    .text:00000000000002cc .L0 
     /tmp/ccllLq3B.s:512    .text:00000000000002d0 .L0 
     /tmp/ccllLq3B.s:514    .text:00000000000002d4 .L0 
     /tmp/ccllLq3B.s:516    .text:00000000000002d8 .L0 
     /tmp/ccllLq3B.s:519    .text:00000000000002dc .L0 
     /tmp/ccllLq3B.s:521    .text:00000000000002e0 .L0 
     /tmp/ccllLq3B.s:527    .text:00000000000002e0 _ZN3SemD2Ev
     /tmp/ccllLq3B.s:530    .text:00000000000002e0 .L0 
     /tmp/ccllLq3B.s:4595   .data.rel.local.DW.ref.__gxx_personality_v0:0000000000000000 DW.ref.__gxx_personality_v0
     /tmp/ccllLq3B.s:534    .text:00000000000002e0 .L0 
     /tmp/ccllLq3B.s:535    .text:00000000000002e4 .L0 
     /tmp/ccllLq3B.s:538    .text:00000000000002ec .L0 
     /tmp/ccllLq3B.s:539    .text:00000000000002ec .L0 
     /tmp/ccllLq3B.s:541    .text:00000000000002f0 .L0 
     /tmp/ccllLq3B.s:544    .text:00000000000002f0 .L0 
     /tmp/ccllLq3B.s:545    .text:00000000000002f0 .L0 
     /tmp/ccllLq3B.s:549    .text:00000000000002f8 .L0 
     /tmp/ccllLq3B.s:550    .text:00000000000002fc .L0 
     /tmp/ccllLq3B.s:552    .text:0000000000000300 .L0 
     /tmp/ccllLq3B.s:553    .text:0000000000000300 .L0 
     /tmp/ccllLq3B.s:555    .text:0000000000000304 .L0 
     /tmp/ccllLq3B.s:557    .text:0000000000000308 .L0 
GAS LISTING /tmp/ccllLq3B.s 			page 18


     /tmp/ccllLq3B.s:527    .text:00000000000002e0 _ZN3SemD1Ev
     /tmp/ccllLq3B.s:577    .text:0000000000000308 .L0 
     /tmp/ccllLq3B.s:32     .text:0000000000000020 .L0 
     /tmp/ccllLq3B.s:99     .text:00000000000000a4 .L2
     /tmp/ccllLq3B.s:59     .text:0000000000000058 .L3
     /tmp/ccllLq3B.s:198    .text:0000000000000130 .L8
     /tmp/ccllLq3B.s:190    .text:0000000000000128 .L10
     /tmp/ccllLq3B.s:151    .text:00000000000000e4 .L7
     /tmp/ccllLq3B.s:163    .text:00000000000000fc .L6
     /tmp/ccllLq3B.s:277    .text:00000000000001a0 .L14
     /tmp/ccllLq3B.s:265    .text:000000000000018c .L20
     /tmp/ccllLq3B.s:272    .text:0000000000000198 .L21
     /tmp/ccllLq3B.s:243    .text:000000000000016c .L13
     /tmp/ccllLq3B.s:250    .text:0000000000000178 .L12
     /tmp/ccllLq3B.s:343    .text:00000000000001f4 .L24
     /tmp/ccllLq3B.s:317    .text:00000000000001c8 .L30
     /tmp/ccllLq3B.s:466    .text:00000000000002ac .L36
     /tmp/ccllLq3B.s:436    .text:0000000000000278 .L35
     /tmp/ccllLq3B.s:485    .text:00000000000002b4 .L37
     /tmp/ccllLq3B.s:461    .text:00000000000002a4 .L38
     /tmp/ccllLq3B.s:413    .text:000000000000024c .L34
     /tmp/ccllLq3B.s:408    .text:0000000000000248 .L43
     /tmp/ccllLq3B.s:425    .text:0000000000000264 .L33
     /tmp/ccllLq3B.s:2612   .debug_abbrev:0000000000000000 .Ldebug_abbrev0
     /tmp/ccllLq3B.s:4525   .debug_str:0000000000000921 .LASF176
     /tmp/ccllLq3B.s:4231   .debug_str:0000000000000071 .LASF177
     /tmp/ccllLq3B.s:4361   .debug_str:00000000000003fe .LASF178
     /tmp/ccllLq3B.s:5      .text:0000000000000000 .Ltext0
     /tmp/ccllLq3B.s:570    .text:0000000000000308 .Letext0
     /tmp/ccllLq3B.s:4217   .debug_line:0000000000000000 .Ldebug_line0
     /tmp/ccllLq3B.s:4355   .debug_str:00000000000003e2 .LASF0
     /tmp/ccllLq3B.s:4381   .debug_str:00000000000004b3 .LASF1
     /tmp/ccllLq3B.s:4459   .debug_str:000000000000070f .LASF2
     /tmp/ccllLq3B.s:4473   .debug_str:00000000000007a9 .LASF4
     /tmp/ccllLq3B.s:4367   .debug_str:000000000000044b .LASF3
     /tmp/ccllLq3B.s:4235   .debug_str:0000000000000088 .LASF5
     /tmp/ccllLq3B.s:4441   .debug_str:0000000000000679 .LASF6
     /tmp/ccllLq3B.s:4433   .debug_str:000000000000063b .LASF7
     /tmp/ccllLq3B.s:4375   .debug_str:0000000000000496 .LASF8
     /tmp/ccllLq3B.s:4331   .debug_str:000000000000031b .LASF9
     /tmp/ccllLq3B.s:4339   .debug_str:000000000000037e .LASF10
     /tmp/ccllLq3B.s:4269   .debug_str:0000000000000191 .LASF11
     /tmp/ccllLq3B.s:4317   .debug_str:00000000000002d4 .LASF12
     /tmp/ccllLq3B.s:4283   .debug_str:00000000000001e0 .LASF13
     /tmp/ccllLq3B.s:4267   .debug_str:0000000000000181 .LASF14
     /tmp/ccllLq3B.s:4505   .debug_str:00000000000008b7 .LASF15
     /tmp/ccllLq3B.s:4303   .debug_str:000000000000025b .LASF16
     /tmp/ccllLq3B.s:4495   .debug_str:0000000000000865 .LASF17
     /tmp/ccllLq3B.s:4427   .debug_str:0000000000000613 .LASF37
     /tmp/ccllLq3B.s:4569   .debug_str:0000000000000afe .LASF179
     /tmp/ccllLq3B.s:4285   .debug_str:00000000000001f0 .LASF18
     /tmp/ccllLq3B.s:4517   .debug_str:0000000000000902 .LASF19
     /tmp/ccllLq3B.s:4565   .debug_str:0000000000000ae3 .LASF43
     /tmp/ccllLq3B.s:4399   .debug_str:000000000000052a .LASF20
     /tmp/ccllLq3B.s:4243   .debug_str:00000000000000cf .LASF21
     /tmp/ccllLq3B.s:4271   .debug_str:00000000000001a0 .LASF22
     /tmp/ccllLq3B.s:4279   .debug_str:00000000000001d5 .LASF23
GAS LISTING /tmp/ccllLq3B.s 			page 19


     /tmp/ccllLq3B.s:4379   .debug_str:00000000000004ae .LASF24
     /tmp/ccllLq3B.s:4351   .debug_str:00000000000003d5 .LASF25
     /tmp/ccllLq3B.s:4489   .debug_str:0000000000000812 .LASF27
     /tmp/ccllLq3B.s:4223   .debug_str:0000000000000018 .LASF26
     /tmp/ccllLq3B.s:4337   .debug_str:000000000000034f .LASF28
     /tmp/ccllLq3B.s:4359   .debug_str:00000000000003f4 .LASF29
     /tmp/ccllLq3B.s:4401   .debug_str:0000000000000534 .LASF30
     /tmp/ccllLq3B.s:4513   .debug_str:00000000000008ee .LASF31
     /tmp/ccllLq3B.s:4405   .debug_str:000000000000056c .LASF33
     /tmp/ccllLq3B.s:4403   .debug_str:0000000000000562 .LASF32
     /tmp/ccllLq3B.s:4237   .debug_str:000000000000008f .LASF34
     /tmp/ccllLq3B.s:4253   .debug_str:000000000000010f .LASF62
     /tmp/ccllLq3B.s:4579   .debug_str:0000000000000b3e .LASF64
     /tmp/ccllLq3B.s:4539   .debug_str:0000000000000a3d .LASF35
     /tmp/ccllLq3B.s:4281   .debug_str:00000000000001da .LASF36
     /tmp/ccllLq3B.s:4241   .debug_str:00000000000000b6 .LASF38
     /tmp/ccllLq3B.s:4369   .debug_str:000000000000045d .LASF39
     /tmp/ccllLq3B.s:4487   .debug_str:00000000000007f7 .LASF40
     /tmp/ccllLq3B.s:4519   .debug_str:0000000000000908 .LASF41
     /tmp/ccllLq3B.s:4549   .debug_str:0000000000000a89 .LASF42
     /tmp/ccllLq3B.s:4275   .debug_str:00000000000001ba .LASF44
     /tmp/ccllLq3B.s:4527   .debug_str:00000000000009e5 .LASF45
     /tmp/ccllLq3B.s:4559   .debug_str:0000000000000aca .LASF46
     /tmp/ccllLq3B.s:4417   .debug_str:00000000000005d9 .LASF47
     /tmp/ccllLq3B.s:4413   .debug_str:00000000000005b8 .LASF48
     /tmp/ccllLq3B.s:4475   .debug_str:00000000000007b0 .LASF49
     /tmp/ccllLq3B.s:4533   .debug_str:0000000000000a04 .LASF50
     /tmp/ccllLq3B.s:4219   .debug_str:0000000000000000 .LASF56
     /tmp/ccllLq3B.s:4447   .debug_str:00000000000006a8 .LASF58
     /tmp/ccllLq3B.s:4503   .debug_str:00000000000008aa .LASF51
     /tmp/ccllLq3B.s:4457   .debug_str:00000000000006eb .LASF52
     /tmp/ccllLq3B.s:4423   .debug_str:00000000000005fb .LASF53
     /tmp/ccllLq3B.s:4515   .debug_str:00000000000008f7 .LASF54
     /tmp/ccllLq3B.s:4411   .debug_str:00000000000005a1 .LASF55
     /tmp/ccllLq3B.s:4295   .debug_str:0000000000000220 .LASF57
     /tmp/ccllLq3B.s:4467   .debug_str:000000000000075d .LASF59
     /tmp/ccllLq3B.s:4255   .debug_str:0000000000000114 .LASF60
     /tmp/ccllLq3B.s:4543   .debug_str:0000000000000a54 .LASF61
     /tmp/ccllLq3B.s:4383   .debug_str:00000000000004c6 .LASF63
     /tmp/ccllLq3B.s:4529   .debug_str:00000000000009ea .LASF65
     /tmp/ccllLq3B.s:4385   .debug_str:00000000000004cc .LASF66
     /tmp/ccllLq3B.s:4547   .debug_str:0000000000000a70 .LASF67
     /tmp/ccllLq3B.s:4321   .debug_str:00000000000002ef .LASF163
     /tmp/ccllLq3B.s:4315   .debug_str:00000000000002bd .LASF165
     /tmp/ccllLq3B.s:4291   .debug_str:000000000000020a .LASF68
     /tmp/ccllLq3B.s:4469   .debug_str:000000000000077c .LASF69
     /tmp/ccllLq3B.s:4523   .debug_str:0000000000000919 .LASF70
     /tmp/ccllLq3B.s:4581   .debug_str:0000000000000b5a .LASF71
     /tmp/ccllLq3B.s:4431   .debug_str:000000000000062f .LASF72
     /tmp/ccllLq3B.s:4261   .debug_str:0000000000000148 .LASF73
     /tmp/ccllLq3B.s:4327   .debug_str:0000000000000305 .LASF74
     /tmp/ccllLq3B.s:4225   .debug_str:000000000000001f .LASF75
     /tmp/ccllLq3B.s:4397   .debug_str:000000000000051d .LASF76
     /tmp/ccllLq3B.s:4493   .debug_str:0000000000000852 .LASF77
     /tmp/ccllLq3B.s:4461   .debug_str:000000000000071d .LASF78
     /tmp/ccllLq3B.s:4289   .debug_str:0000000000000203 .LASF79
     /tmp/ccllLq3B.s:4391   .debug_str:00000000000004ff .LASF80
GAS LISTING /tmp/ccllLq3B.s 			page 20


     /tmp/ccllLq3B.s:4585   .debug_str:0000000000000b80 .LASF81
     /tmp/ccllLq3B.s:4421   .debug_str:00000000000005e7 .LASF82
     /tmp/ccllLq3B.s:4323   .debug_str:00000000000002fb .LASF83
     /tmp/ccllLq3B.s:4299   .debug_str:000000000000023f .LASF84
     /tmp/ccllLq3B.s:4245   .debug_str:00000000000000d4 .LASF85
     /tmp/ccllLq3B.s:4483   .debug_str:00000000000007e0 .LASF86
     /tmp/ccllLq3B.s:4465   .debug_str:0000000000000736 .LASF87
     /tmp/ccllLq3B.s:4341   .debug_str:000000000000038c .LASF88
     /tmp/ccllLq3B.s:4535   .debug_str:0000000000000a10 .LASF89
     /tmp/ccllLq3B.s:4463   .debug_str:000000000000072a .LASF90
     /tmp/ccllLq3B.s:4365   .debug_str:0000000000000428 .LASF91
     /tmp/ccllLq3B.s:4557   .debug_str:0000000000000ac1 .LASF92
     /tmp/ccllLq3B.s:4389   .debug_str:00000000000004f2 .LASF93
     /tmp/ccllLq3B.s:4583   .debug_str:0000000000000b67 .LASF94
     /tmp/ccllLq3B.s:4521   .debug_str:000000000000090d .LASF95
     /tmp/ccllLq3B.s:4343   .debug_str:0000000000000397 .LASF96
     /tmp/ccllLq3B.s:4537   .debug_str:0000000000000a35 .LASF97
     /tmp/ccllLq3B.s:4363   .debug_str:0000000000000423 .LASF98
     /tmp/ccllLq3B.s:4575   .debug_str:0000000000000b19 .LASF99
     /tmp/ccllLq3B.s:4305   .debug_str:0000000000000271 .LASF100
     /tmp/ccllLq3B.s:4531   .debug_str:00000000000009fa .LASF101
     /tmp/ccllLq3B.s:4511   .debug_str:00000000000008e5 .LASF102
     /tmp/ccllLq3B.s:4481   .debug_str:00000000000007cf .LASF103
     /tmp/ccllLq3B.s:4287   .debug_str:00000000000001f5 .LASF104
     /tmp/ccllLq3B.s:4229   .debug_str:0000000000000049 .LASF105
     /tmp/ccllLq3B.s:4293   .debug_str:0000000000000217 .LASF106
     /tmp/ccllLq3B.s:4277   .debug_str:00000000000001c2 .LASF108
     /tmp/ccllLq3B.s:4571   .debug_str:0000000000000b05 .LASF180
     /tmp/ccllLq3B.s:4499   .debug_str:000000000000088e .LASF181
     /tmp/ccllLq3B.s:4259   .debug_str:000000000000013a .LASF107
     /tmp/ccllLq3B.s:4387   .debug_str:00000000000004d9 .LASF109
     /tmp/ccllLq3B.s:4263   .debug_str:0000000000000158 .LASF161
     /tmp/ccllLq3B.s:4247   .debug_str:00000000000000e8 .LASF110
     /tmp/ccllLq3B.s:4221   .debug_str:000000000000000c .LASF111
     /tmp/ccllLq3B.s:4311   .debug_str:00000000000002a1 .LASF112
     /tmp/ccllLq3B.s:4409   .debug_str:0000000000000592 .LASF113
     /tmp/ccllLq3B.s:4507   .debug_str:00000000000008c3 .LASF114
     /tmp/ccllLq3B.s:4491   .debug_str:0000000000000841 .LASF115
     /tmp/ccllLq3B.s:4347   .debug_str:00000000000003c2 .LASF116
     /tmp/ccllLq3B.s:4297   .debug_str:000000000000022e .LASF117
     /tmp/ccllLq3B.s:4333   .debug_str:000000000000032b .LASF118
     /tmp/ccllLq3B.s:4415   .debug_str:00000000000005cd .LASF119
     /tmp/ccllLq3B.s:4373   .debug_str:0000000000000489 .LASF120
     /tmp/ccllLq3B.s:4309   .debug_str:0000000000000294 .LASF121
     /tmp/ccllLq3B.s:4239   .debug_str:00000000000000b0 .LASF122
     /tmp/ccllLq3B.s:4251   .debug_str:00000000000000ff .LASF123
     /tmp/ccllLq3B.s:4353   .debug_str:00000000000003dc .LASF124
     /tmp/ccllLq3B.s:4371   .debug_str:0000000000000479 .LASF125
     /tmp/ccllLq3B.s:4573   .debug_str:0000000000000b11 .LASF126
     /tmp/ccllLq3B.s:4477   .debug_str:00000000000007b5 .LASF127
     /tmp/ccllLq3B.s:4419   .debug_str:00000000000005df .LASF128
     /tmp/ccllLq3B.s:4555   .debug_str:0000000000000aba .LASF129
     /tmp/ccllLq3B.s:4551   .debug_str:0000000000000a92 .LASF130
     /tmp/ccllLq3B.s:4545   .debug_str:0000000000000a6b .LASF133
     /tmp/ccllLq3B.s:4377   .debug_str:00000000000004a9 .LASF131
     /tmp/ccllLq3B.s:4437   .debug_str:000000000000066b .LASF132
     /tmp/ccllLq3B.s:4577   .debug_str:0000000000000b1f .LASF134
GAS LISTING /tmp/ccllLq3B.s 			page 21


     /tmp/ccllLq3B.s:4501   .debug_str:00000000000008a5 .LASF135
     /tmp/ccllLq3B.s:4395   .debug_str:0000000000000518 .LASF136
     /tmp/ccllLq3B.s:4479   .debug_str:00000000000007c7 .LASF137
     /tmp/ccllLq3B.s:4257   .debug_str:0000000000000120 .LASF138
     /tmp/ccllLq3B.s:4407   .debug_str:000000000000058d .LASF139
     /tmp/ccllLq3B.s:4497   .debug_str:000000000000087b .LASF140
     /tmp/ccllLq3B.s:4313   .debug_str:00000000000002a6 .LASF141
     /tmp/ccllLq3B.s:4485   .debug_str:00000000000007ed .LASF168
     /tmp/ccllLq3B.s:4451   .debug_str:00000000000006c4 .LASF182
     /tmp/ccllLq3B.s:4455   .debug_str:00000000000006e2 .LASF142
     /tmp/ccllLq3B.s:4265   .debug_str:0000000000000164 .LASF143
     /tmp/ccllLq3B.s:4393   .debug_str:0000000000000510 .LASF144
     /tmp/ccllLq3B.s:4307   .debug_str:0000000000000278 .LASF145
     /tmp/ccllLq3B.s:4429   .debug_str:0000000000000623 .LASF146
     /tmp/ccllLq3B.s:4553   .debug_str:0000000000000a9c .LASF147
     /tmp/ccllLq3B.s:4587   .debug_str:0000000000000b8a .LASF148
     /tmp/ccllLq3B.s:4509   .debug_str:00000000000008ca .LASF149
     /tmp/ccllLq3B.s:4445   .debug_str:000000000000069d .LASF150
     /tmp/ccllLq3B.s:4435   .debug_str:000000000000064e .LASF151
     /tmp/ccllLq3B.s:4439   .debug_str:0000000000000670 .LASF152
     /tmp/ccllLq3B.s:4227   .debug_str:000000000000002f .LASF153
     /tmp/ccllLq3B.s:4329   .debug_str:0000000000000311 .LASF154
     /tmp/ccllLq3B.s:4349   .debug_str:00000000000003c8 .LASF155
     /tmp/ccllLq3B.s:4567   .debug_str:0000000000000aec .LASF156
     /tmp/ccllLq3B.s:4541   .debug_str:0000000000000a42 .LASF157
     /tmp/ccllLq3B.s:4249   .debug_str:00000000000000ed .LASF158
     /tmp/ccllLq3B.s:4425   .debug_str:0000000000000600 .LASF159
     /tmp/ccllLq3B.s:4301   .debug_str:0000000000000248 .LASF160
     /tmp/ccllLq3B.s:4345   .debug_str:00000000000003ae .LASF183
     /tmp/ccllLq3B.s:4335   .debug_str:0000000000000337 .LASF162
     /tmp/ccllLq3B.s:4561   .debug_str:0000000000000ad2 .LASF164
     /tmp/ccllLq3B.s:4443   .debug_str:0000000000000680 .LASF166
     /tmp/ccllLq3B.s:4273   .debug_str:00000000000001a5 .LASF167
     /tmp/ccllLq3B.s:4471   .debug_str:0000000000000794 .LASF169
     /tmp/ccllLq3B.s:4449   .debug_str:00000000000006bf .LASF170
     /tmp/ccllLq3B.s:4325   .debug_str:0000000000000300 .LASF171
     /tmp/ccllLq3B.s:4357   .debug_str:00000000000003ef .LASF172
     /tmp/ccllLq3B.s:355    .text:00000000000001fc .LFB48
     /tmp/ccllLq3B.s:522    .text:00000000000002e0 .LFE48
     /tmp/ccllLq3B.s:3884   .debug_loc:0000000000000000 .LLST11
     /tmp/ccllLq3B.s:3917   .debug_loc:0000000000000088 .LLST12
     /tmp/ccllLq3B.s:403    .text:0000000000000240 .LBB24
     /tmp/ccllLq3B.s:478    .text:00000000000002ac .LBE24
     /tmp/ccllLq3B.s:3928   .debug_loc:00000000000000be .LLST14
     /tmp/ccllLq3B.s:409    .text:0000000000000248 .LBB25
     /tmp/ccllLq3B.s:4197   .debug_ranges:0000000000000000 .Ldebug_ranges0
     /tmp/ccllLq3B.s:3944   .debug_loc:0000000000000108 .LLST15
     /tmp/ccllLq3B.s:3955   .debug_loc:000000000000013e .LLST16
     /tmp/ccllLq3B.s:3966   .debug_loc:0000000000000174 .LLST17
     /tmp/ccllLq3B.s:419    .text:0000000000000258 .LVL41
     /tmp/ccllLq3B.s:432    .text:0000000000000274 .LVL43
     /tmp/ccllLq3B.s:442    .text:0000000000000284 .LVL45
     /tmp/ccllLq3B.s:395    .text:000000000000023c .LBB22
     /tmp/ccllLq3B.s:401    .text:0000000000000240 .LBE22
     /tmp/ccllLq3B.s:3973   .debug_loc:0000000000000197 .LLST13
     /tmp/ccllLq3B.s:294    .text:00000000000001a8 .LFB47
     /tmp/ccllLq3B.s:349    .text:00000000000001fc .LFE47
GAS LISTING /tmp/ccllLq3B.s 			page 22


     /tmp/ccllLq3B.s:3982   .debug_loc:00000000000001bc .LLST10
     /tmp/ccllLq3B.s:330    .text:00000000000001e0 .LVL33
     /tmp/ccllLq3B.s:211    .text:0000000000000138 .LFB46
     /tmp/ccllLq3B.s:288    .text:00000000000001a8 .LFE46
     /tmp/ccllLq3B.s:4018   .debug_loc:0000000000000247 .LLST9
     /tmp/ccllLq3B.s:270    .text:0000000000000194 .LVL27
     /tmp/ccllLq3B.s:4233   .debug_str:000000000000007e .LASF173
     /tmp/ccllLq3B.s:4319   .debug_str:00000000000002e3 .LASF184
     /tmp/ccllLq3B.s:528    .text:00000000000002e0 .LFB44
     /tmp/ccllLq3B.s:558    .text:0000000000000308 .LFE44
     /tmp/ccllLq3B.s:4051   .debug_loc:00000000000002cf .LLST18
     /tmp/ccllLq3B.s:546    .text:00000000000002f8 .LVL56
     /tmp/ccllLq3B.s:116    .text:00000000000000b0 .LFB42
     /tmp/ccllLq3B.s:205    .text:0000000000000138 .LFE42
     /tmp/ccllLq3B.s:4065   .debug_loc:0000000000000308 .LLST4
     /tmp/ccllLq3B.s:4453   .debug_str:00000000000006db .LASF174
     /tmp/ccllLq3B.s:4093   .debug_loc:000000000000037c .LLST5
     /tmp/ccllLq3B.s:137    .text:00000000000000d0 .LBB13
     /tmp/ccllLq3B.s:4100   .debug_loc:000000000000039f .LLST6
     /tmp/ccllLq3B.s:4111   .debug_loc:00000000000003d5 .LLST7
     /tmp/ccllLq3B.s:4122   .debug_loc:000000000000040b .LLST8
     /tmp/ccllLq3B.s:157    .text:00000000000000f0 .LVL15
     /tmp/ccllLq3B.s:169    .text:0000000000000104 .LVL17
     /tmp/ccllLq3B.s:172    .text:0000000000000110 .LVL18
     /tmp/ccllLq3B.s:10     .text:0000000000000000 .LFB41
     /tmp/ccllLq3B.s:110    .text:00000000000000b0 .LFE41
     /tmp/ccllLq3B.s:4129   .debug_loc:000000000000042e .LLST0
     /tmp/ccllLq3B.s:4563   .debug_str:0000000000000ade .LASF175
     /tmp/ccllLq3B.s:39     .text:0000000000000034 .LBB7
     /tmp/ccllLq3B.s:4151   .debug_loc:000000000000048d .LLST1
     /tmp/ccllLq3B.s:4162   .debug_loc:00000000000004c3 .LLST2
     /tmp/ccllLq3B.s:4173   .debug_loc:00000000000004f9 .LLST3
     /tmp/ccllLq3B.s:46     .text:0000000000000040 .LVL3
     /tmp/ccllLq3B.s:70     .text:000000000000006c .LVL5
     /tmp/ccllLq3B.s:72     .text:0000000000000074 .LVL6
     /tmp/ccllLq3B.s:80     .text:0000000000000088 .LVL7
     /tmp/ccllLq3B.s:358    .text:00000000000001fc .LVL36
     /tmp/ccllLq3B.s:407    .text:0000000000000248 .LVL39
     /tmp/ccllLq3B.s:465    .text:00000000000002ac .LVL49
     /tmp/ccllLq3B.s:481    .text:00000000000002b0 .LVL50
     /tmp/ccllLq3B.s:484    .text:00000000000002b4 .LVL51
     /tmp/ccllLq3B.s:507    .text:00000000000002c8 .LVL52
     /tmp/ccllLq3B.s:399    .text:0000000000000240 .LVL38
     /tmp/ccllLq3B.s:517    .text:00000000000002d8 .LVL54
     /tmp/ccllLq3B.s:510    .text:00000000000002cc .LVL53
     /tmp/ccllLq3B.s:424    .text:0000000000000264 .LVL42
     /tmp/ccllLq3B.s:445    .text:000000000000028c .LVL46
     /tmp/ccllLq3B.s:452    .text:0000000000000294 .LVL47
     /tmp/ccllLq3B.s:460    .text:00000000000002a4 .LVL48
     /tmp/ccllLq3B.s:416    .text:0000000000000250 .LVL40
     /tmp/ccllLq3B.s:394    .text:000000000000023c .LVL37
     /tmp/ccllLq3B.s:297    .text:00000000000001a8 .LVL30
     /tmp/ccllLq3B.s:313    .text:00000000000001c4 .LVL31
     /tmp/ccllLq3B.s:316    .text:00000000000001c8 .LVL32
     /tmp/ccllLq3B.s:342    .text:00000000000001f4 .LVL34
     /tmp/ccllLq3B.s:346    .text:00000000000001f8 .LVL35
     /tmp/ccllLq3B.s:214    .text:0000000000000138 .LVL23
GAS LISTING /tmp/ccllLq3B.s 			page 23


     /tmp/ccllLq3B.s:242    .text:000000000000016c .LVL24
     /tmp/ccllLq3B.s:260    .text:0000000000000184 .LVL25
     /tmp/ccllLq3B.s:264    .text:000000000000018c .LVL26
     /tmp/ccllLq3B.s:276    .text:00000000000001a0 .LVL28
     /tmp/ccllLq3B.s:284    .text:00000000000001a4 .LVL29
     /tmp/ccllLq3B.s:533    .text:00000000000002e0 .LVL55
     /tmp/ccllLq3B.s:119    .text:00000000000000b0 .LVL10
     /tmp/ccllLq3B.s:141    .text:00000000000000d4 .LVL12
     /tmp/ccllLq3B.s:182    .text:000000000000011c .LVL19
     /tmp/ccllLq3B.s:189    .text:0000000000000128 .LVL21
     /tmp/ccllLq3B.s:162    .text:00000000000000fc .LVL16
     /tmp/ccllLq3B.s:185    .text:0000000000000120 .LVL20
     /tmp/ccllLq3B.s:136    .text:00000000000000d0 .LVL11
     /tmp/ccllLq3B.s:144    .text:00000000000000d8 .LVL13
     /tmp/ccllLq3B.s:197    .text:0000000000000130 .LVL22
     /tmp/ccllLq3B.s:154    .text:00000000000000e8 .LVL14
     /tmp/ccllLq3B.s:14     .text:0000000000000000 .LVL0
     /tmp/ccllLq3B.s:44     .text:0000000000000038 .LVL2
     /tmp/ccllLq3B.s:92     .text:0000000000000098 .LVL8
     /tmp/ccllLq3B.s:98     .text:00000000000000a4 .LVL9
     /tmp/ccllLq3B.s:38     .text:0000000000000034 .LVL1
     /tmp/ccllLq3B.s:64     .text:0000000000000064 .LVL4
     /tmp/ccllLq3B.s:578    .debug_info:0000000000000000 .Ldebug_info0
     /tmp/ccllLq3B.s:66     .text:0000000000000064 .LBE7
     /tmp/ccllLq3B.s:101    .text:00000000000000a4 .LBB10
     /tmp/ccllLq3B.s:108    .text:00000000000000b0 .LBE10
     /tmp/ccllLq3B.s:165    .text:00000000000000fc .LBE13
     /tmp/ccllLq3B.s:192    .text:0000000000000128 .LBB16
     /tmp/ccllLq3B.s:203    .text:0000000000000138 .LBE16
     /tmp/ccllLq3B.s:427    .text:0000000000000264 .LBE25
     /tmp/ccllLq3B.s:446    .text:000000000000028c .LBB28
     /tmp/ccllLq3B.s:477    .text:00000000000002ac .LBE28
     /tmp/ccllLq3B.s:561    .gcc_except_table:0000000000000000 .LLSDA44

UNDEFINED SYMBOLS
_ZN3TCB7runningE
_ZN15MemoryAllocator9mem_allocEm
_ZN9Scheduler11getInstanceEv
_ZN9Scheduler3getEv
_ZN3TCB13changeRunningEPPS_S1_
_ZN15MemoryAllocator8mem_freeEPv
_ZN9Scheduler3putEP3TCB
__gxx_personality_v0
