GAS LISTING /tmp/ccbskzOy.s 			page 1


   1              		.file	"main.cpp"
   2              		.option pic
   3              		.option norelax
   4              		.text
   5              	.Ltext0:
   6              		.align	2
   7              		.globl	_Z11userWrapperPv
   9              	_Z11userWrapperPv:
  10              	.LFB81:
  11              		.file 1 "src/main.cpp"
   1:src/main.cpp  **** //
   2:src/main.cpp  **** // Created by os on 8/10/22.
   3:src/main.cpp  **** //
   4:src/main.cpp  **** #include "../h/MemoryAllocator.hpp"
   5:src/main.cpp  **** #include "../h/syscall_c.h"
   6:src/main.cpp  **** #include "../h/riscv.hpp"
   7:src/main.cpp  **** #include "../h/syscall_cpp.hpp"
   8:src/main.cpp  **** 
   9:src/main.cpp  **** extern void userMain();
  10:src/main.cpp  **** void userWrapper(void* sem){
  12              		.loc 1 10 28
  13              		.cfi_startproc
  14              	.LVL0:
  15 0000 130101FE 		addi	sp,sp,-32
  16              		.cfi_def_cfa_offset 32
  17 0004 233C1100 		sd	ra,24(sp)
  18 0008 23388100 		sd	s0,16(sp)
  19 000c 23349100 		sd	s1,8(sp)
  20              		.cfi_offset 1, -8
  21              		.cfi_offset 8, -16
  22              		.cfi_offset 9, -24
  23 0010 13040102 		addi	s0,sp,32
  24              		.cfi_def_cfa 8, 0
  25 0014 93040500 		mv	s1,a0
  11:src/main.cpp  ****     userMain();
  26              		.loc 1 11 5
  27              		.loc 1 11 13 is_stmt 0
  28 0018 97000000 		call	_Z8userMainv@plt
  28      E7800000 
  29              	.LVL1:
  12:src/main.cpp  ****     ((Semaphore*)sem)->signal();
  30              		.loc 1 12 5 is_stmt 1
  31              		.loc 1 12 30 is_stmt 0
  32 0020 13850400 		mv	a0,s1
  33 0024 97000000 		call	_ZN9Semaphore6signalEv@plt
  33      E7800000 
  34              	.LVL2:
  13:src/main.cpp  **** }
  35              		.loc 1 13 1
  36 002c 83308101 		ld	ra,24(sp)
  37              		.cfi_restore 1
  38 0030 03340101 		ld	s0,16(sp)
  39              		.cfi_restore 8
  40              		.cfi_def_cfa 2, 32
  41 0034 83348100 		ld	s1,8(sp)
  42              		.cfi_restore 9
  43              	.LVL3:
GAS LISTING /tmp/ccbskzOy.s 			page 2


  44 0038 13010102 		addi	sp,sp,32
  45              		.cfi_def_cfa_offset 0
  46 003c 67800000 		jr	ra
  47              		.cfi_endproc
  48              	.LFE81:
  50              		.section	.text._ZN3TCBD2Ev,"axG",@progbits,_ZN3TCBD5Ev,comdat
  51              		.align	2
  52              		.weak	_ZN3TCBD2Ev
  54              	_ZN3TCBD2Ev:
  55              	.LFB17:
  56              		.file 2 "src/../h/tcb.hpp"
   1:src/../h/tcb.hpp **** //
   2:src/../h/tcb.hpp **** // Created by os on 8/12/22.
   3:src/../h/tcb.hpp **** //
   4:src/../h/tcb.hpp **** 
   5:src/../h/tcb.hpp **** #ifndef PROJECT_BASE_V1_1_TCB_HPP
   6:src/../h/tcb.hpp **** #define PROJECT_BASE_V1_1_TCB_HPP
   7:src/../h/tcb.hpp **** #include "../lib/hw.h"
   8:src/../h/tcb.hpp **** #include "scheduler.hpp"
   9:src/../h/tcb.hpp **** #include "MemoryAllocator.hpp"
  10:src/../h/tcb.hpp **** #include "../test/printing.hpp"
  11:src/../h/tcb.hpp **** #include "syscall_c.h"
  12:src/../h/tcb.hpp **** #include "../lib/mem.h"
  13:src/../h/tcb.hpp **** 
  14:src/../h/tcb.hpp **** class TCB {
  15:src/../h/tcb.hpp **** public:
  16:src/../h/tcb.hpp ****     ~TCB(){
  57              		.loc 2 16 5 is_stmt 1
  58              		.cfi_startproc
  59              	.LVL4:
  60 0000 130101FE 		addi	sp,sp,-32
  61              		.cfi_def_cfa_offset 32
  62 0004 233C1100 		sd	ra,24(sp)
  63 0008 23388100 		sd	s0,16(sp)
  64 000c 23349100 		sd	s1,8(sp)
  65              		.cfi_offset 1, -8
  66              		.cfi_offset 8, -16
  67              		.cfi_offset 9, -24
  68 0010 13040102 		addi	s0,sp,32
  69              		.cfi_def_cfa 8, 0
  70 0014 93040500 		mv	s1,a0
  71              	.LBB16:
  17:src/../h/tcb.hpp ****         if(stack) {
  72              		.loc 2 17 9
  73              		.loc 2 17 12 is_stmt 0
  74 0018 03350513 		ld	a0,304(a0)
  75              	.LVL5:
  76              		.loc 2 17 9
  77 001c 63060500 		beqz	a0,.L4
  18:src/../h/tcb.hpp ****             delete[] stack;
  78              		.loc 2 18 13 is_stmt 1 discriminator 1
  79              		.loc 2 18 22 is_stmt 0 discriminator 1
  80 0020 97000000 		call	_ZdaPv@plt
  80      E7800000 
  81              	.LVL6:
  82              	.L4:
  19:src/../h/tcb.hpp ****         }
GAS LISTING /tmp/ccbskzOy.s 			page 3


  20:src/../h/tcb.hpp ****         if(sstack) {
  83              		.loc 2 20 9 is_stmt 1
  84              		.loc 2 20 12 is_stmt 0
  85 0028 03B58413 		ld	a0,312(s1)
  86              		.loc 2 20 9
  87 002c 63060500 		beqz	a0,.L3
  21:src/../h/tcb.hpp ****             delete[] sstack;
  88              		.loc 2 21 13 is_stmt 1 discriminator 1
  89              		.loc 2 21 22 is_stmt 0 discriminator 1
  90 0030 97000000 		call	_ZdaPv@plt
  90      E7800000 
  91              	.LVL7:
  22:src/../h/tcb.hpp ****         }
  23:src/../h/tcb.hpp ****         body=nullptr;
  92              		.loc 2 23 9 is_stmt 1 discriminator 1
  24:src/../h/tcb.hpp ****         sstack=stack=nullptr;
  93              		.loc 2 24 9 discriminator 1
  25:src/../h/tcb.hpp ****         par=nullptr;
  94              		.loc 2 25 9 discriminator 1
  26:src/../h/tcb.hpp ****         ssp=0;
  95              		.loc 2 26 9 discriminator 1
  27:src/../h/tcb.hpp ****         finished=true;
  96              		.loc 2 27 9 discriminator 1
  28:src/../h/tcb.hpp ****         timeSlice=0;
  97              		.loc 2 28 9 discriminator 1
  29:src/../h/tcb.hpp ****         context.ra=context.sp=0;
  98              		.loc 2 29 9 discriminator 1
  99              	.L3:
 100              	.LBE16:
  30:src/../h/tcb.hpp ****     }
 101              		.loc 2 30 5 is_stmt 0
 102 0038 83308101 		ld	ra,24(sp)
 103              		.cfi_restore 1
 104 003c 03340101 		ld	s0,16(sp)
 105              		.cfi_restore 8
 106              		.cfi_def_cfa 2, 32
 107 0040 83348100 		ld	s1,8(sp)
 108              		.cfi_restore 9
 109              	.LVL8:
 110 0044 13010102 		addi	sp,sp,32
 111              		.cfi_def_cfa_offset 0
 112 0048 67800000 		jr	ra
 113              		.cfi_endproc
 114              	.LFE17:
 116              		.weak	_ZN3TCBD1Ev
 117              		.set	_ZN3TCBD1Ev,_ZN3TCBD2Ev
 118              		.text
 119              		.align	2
 120              		.globl	main
 122              	main:
 123              	.LFB82:
  14:src/main.cpp  **** 
  15:src/main.cpp  **** 
  16:src/main.cpp  **** int main(){
 124              		.loc 1 16 11 is_stmt 1
 125              		.cfi_startproc
 126              		.cfi_personality 0x9b,DW.ref.__gxx_personality_v0
GAS LISTING /tmp/ccbskzOy.s 			page 4


 127              		.cfi_lsda 0x1b,.LLSDA82
 128 0040 130101FD 		addi	sp,sp,-48
 129              		.cfi_def_cfa_offset 48
 130 0044 23341102 		sd	ra,40(sp)
 131 0048 23308102 		sd	s0,32(sp)
 132 004c 233C9100 		sd	s1,24(sp)
 133 0050 23382101 		sd	s2,16(sp)
 134              		.cfi_offset 1, -8
 135              		.cfi_offset 8, -16
 136              		.cfi_offset 9, -24
 137              		.cfi_offset 18, -32
 138 0054 13040103 		addi	s0,sp,48
 139              		.cfi_def_cfa 8, 0
  17:src/main.cpp  ****     MemoryAllocator::init();
 140              		.loc 1 17 5
 141              	.LEHB0:
 142              		.loc 1 17 26 is_stmt 0
 143 0058 97000000 		call	_ZN15MemoryAllocator4initEv@plt
 143      E7800000 
 144              	.LVL9:
  18:src/main.cpp  ****     Riscv::w_stvec((uint64) &Riscv::supervisorTrap);
 145              		.loc 1 18 5 is_stmt 1
 146              		.loc 1 18 19 is_stmt 0
 147 0060 97070000 		la	a5,_ZN5Riscv14supervisorTrapEv
 147      83B70700 
 148              	.LVL10:
 149              	.LBB17:
 150              	.LBB18:
 151              		.file 3 "src/../h/riscv.hpp"
   1:src/../h/riscv.hpp **** //
   2:src/../h/riscv.hpp **** // Created by os on 8/11/22.
   3:src/../h/riscv.hpp **** //
   4:src/../h/riscv.hpp **** 
   5:src/../h/riscv.hpp **** #ifndef PROJECT_BASE_V1_1_RISCV_HPP
   6:src/../h/riscv.hpp **** #define PROJECT_BASE_V1_1_RISCV_HPP
   7:src/../h/riscv.hpp **** #include "../lib/hw.h"
   8:src/../h/riscv.hpp **** #include "../lib/console.h"
   9:src/../h/riscv.hpp **** #include "codes.hpp"
  10:src/../h/riscv.hpp **** #include "tcb.hpp"
  11:src/../h/riscv.hpp **** #include "TimeSleep.hpp"
  12:src/../h/riscv.hpp **** #include "_console.hpp"
  13:src/../h/riscv.hpp **** class Riscv {
  14:src/../h/riscv.hpp **** private:
  15:src/../h/riscv.hpp **** 
  16:src/../h/riscv.hpp ****     static void handleSupervisorTrap();
  17:src/../h/riscv.hpp **** 
  18:src/../h/riscv.hpp ****     static void unexpectedTrap();
  19:src/../h/riscv.hpp **** 
  20:src/../h/riscv.hpp ****     static void syscall(uint64 code,uint64 a1,uint64 a2,uint64 a3,uint64 a4);
  21:src/../h/riscv.hpp ****     static void kernelPrint(char const *string){
  22:src/../h/riscv.hpp ****         while (*string != '\0')
  23:src/../h/riscv.hpp ****         {
  24:src/../h/riscv.hpp ****             output->cons_put((*string));
  25:src/../h/riscv.hpp ****             string++;
  26:src/../h/riscv.hpp ****         }
  27:src/../h/riscv.hpp ****     }
  28:src/../h/riscv.hpp ****     static char digits[];
GAS LISTING /tmp/ccbskzOy.s 			page 5


  29:src/../h/riscv.hpp ****     static void kernelPrintInt(int xx, int base=10, int sgn=0){
  30:src/../h/riscv.hpp ****         char buf[16];
  31:src/../h/riscv.hpp ****         int i, neg;
  32:src/../h/riscv.hpp ****         uint x;
  33:src/../h/riscv.hpp **** 
  34:src/../h/riscv.hpp ****         neg = 0;
  35:src/../h/riscv.hpp ****         if(sgn && xx < 0){
  36:src/../h/riscv.hpp ****             neg = 1;
  37:src/../h/riscv.hpp ****             x = -xx;
  38:src/../h/riscv.hpp ****         } else {
  39:src/../h/riscv.hpp ****             x = xx;
  40:src/../h/riscv.hpp ****         }
  41:src/../h/riscv.hpp **** 
  42:src/../h/riscv.hpp ****         i = 0;
  43:src/../h/riscv.hpp ****         do{
  44:src/../h/riscv.hpp ****             buf[i++] = digits[x % base];
  45:src/../h/riscv.hpp ****         }while((x /= base) != 0);
  46:src/../h/riscv.hpp ****         if(neg)
  47:src/../h/riscv.hpp ****             buf[i++] = '-';
  48:src/../h/riscv.hpp **** 
  49:src/../h/riscv.hpp ****         while(--i >= 0)
  50:src/../h/riscv.hpp ****             output->cons_put(buf[i]);
  51:src/../h/riscv.hpp **** 
  52:src/../h/riscv.hpp ****     }
  53:src/../h/riscv.hpp **** 
  54:src/../h/riscv.hpp **** public:
  55:src/../h/riscv.hpp ****     static uint64 returnValue();
  56:src/../h/riscv.hpp ****     static void determinePrivilege();
  57:src/../h/riscv.hpp ****     static void loadParams(uint64 *);
  58:src/../h/riscv.hpp ****     static void takeArg(Codes c){
  59:src/../h/riscv.hpp ****         __asm__ volatile("mv a4, a3");
  60:src/../h/riscv.hpp ****         __asm__ volatile("mv a3, a2");
  61:src/../h/riscv.hpp ****         __asm__ volatile("mv a2, a1");
  62:src/../h/riscv.hpp ****         __asm__ volatile("mv a1, a0");
  63:src/../h/riscv.hpp ****         __asm__ volatile("mv a0, %0" : : "r"(c));
  64:src/../h/riscv.hpp ****         __asm__ volatile("ecall");
  65:src/../h/riscv.hpp ****     }
  66:src/../h/riscv.hpp ****     static void retTosret();
  67:src/../h/riscv.hpp **** 
  68:src/../h/riscv.hpp ****     static uint64 r_scause();
  69:src/../h/riscv.hpp **** 
  70:src/../h/riscv.hpp ****     static void w_scause(uint64 scause);
  71:src/../h/riscv.hpp **** 
  72:src/../h/riscv.hpp ****     static uint64 r_sepc();
  73:src/../h/riscv.hpp **** 
  74:src/../h/riscv.hpp ****     static void w_sepc(uint64 sepc);
  75:src/../h/riscv.hpp **** 
  76:src/../h/riscv.hpp ****     static uint64 r_stvec();
  77:src/../h/riscv.hpp **** 
  78:src/../h/riscv.hpp ****     static void w_stvec(uint64 stvec);
  79:src/../h/riscv.hpp **** 
  80:src/../h/riscv.hpp ****     static uint64 r_stval();
  81:src/../h/riscv.hpp **** 
  82:src/../h/riscv.hpp ****     static void w_stval(uint64 stval);
  83:src/../h/riscv.hpp **** 
  84:src/../h/riscv.hpp ****     enum BitMaskSip : uint64 {
  85:src/../h/riscv.hpp ****         SIP_SSIP = (1UL << 1),
GAS LISTING /tmp/ccbskzOy.s 			page 6


  86:src/../h/riscv.hpp ****         SIP_STIP = (1UL << 5),
  87:src/../h/riscv.hpp ****         SIP_SEIP = (1UL << 9),
  88:src/../h/riscv.hpp ****     };
  89:src/../h/riscv.hpp **** 
  90:src/../h/riscv.hpp ****     static void ms_sip(uint64 mask);
  91:src/../h/riscv.hpp **** 
  92:src/../h/riscv.hpp ****     static void mc_sip(uint64 mask);
  93:src/../h/riscv.hpp **** 
  94:src/../h/riscv.hpp ****     static uint64 r_sip();
  95:src/../h/riscv.hpp **** 
  96:src/../h/riscv.hpp ****     static void w_sip(uint64 sip);
  97:src/../h/riscv.hpp ****     static void buffersReady();
  98:src/../h/riscv.hpp ****     enum BitMaskSstatus : uint64
  99:src/../h/riscv.hpp ****     {
 100:src/../h/riscv.hpp ****         SSTATUS_SIE=(1UL<<1),
 101:src/../h/riscv.hpp ****         SSTATUS_SPIE=(1UL<<5),
 102:src/../h/riscv.hpp ****         SSTATUS_SPP=(1UL<<8),
 103:src/../h/riscv.hpp ****     };
 104:src/../h/riscv.hpp ****     static void ms_sstatus(uint64 mask);
 105:src/../h/riscv.hpp ****     static void mc_sstatus(uint64 mask);
 106:src/../h/riscv.hpp ****     static uint64 r_sstatus();
 107:src/../h/riscv.hpp ****     static void w_sstatus(uint64 sstatus);
 108:src/../h/riscv.hpp ****     static void supervisorTrap();
 109:src/../h/riscv.hpp ****     static _console *input,*output;
 110:src/../h/riscv.hpp **** 
 111:src/../h/riscv.hpp **** };
 112:src/../h/riscv.hpp **** inline uint64 Riscv::r_scause() {
 113:src/../h/riscv.hpp ****     uint64 volatile scause;
 114:src/../h/riscv.hpp ****     __asm__ volatile ("csrr %[scause], scause" : [scause] "=r"(scause));
 115:src/../h/riscv.hpp ****     return scause;
 116:src/../h/riscv.hpp **** }
 117:src/../h/riscv.hpp **** inline void Riscv::w_scause(uint64 scause) {
 118:src/../h/riscv.hpp ****     __asm__ volatile ("csrw scause, %[scause]" : : [scause] "r"(scause));
 119:src/../h/riscv.hpp **** }
 120:src/../h/riscv.hpp **** inline uint64 Riscv::r_sepc() {
 121:src/../h/riscv.hpp ****     uint64 volatile sepc;
 122:src/../h/riscv.hpp ****     __asm__ volatile ("csrr %[sepc],sepc":[sepc] "=r"(sepc));
 123:src/../h/riscv.hpp ****     return sepc;
 124:src/../h/riscv.hpp **** }
 125:src/../h/riscv.hpp **** inline void Riscv::w_sepc(uint64 sepc) {
 126:src/../h/riscv.hpp ****     __asm__ volatile("csrw sepc,%[sepc]": :[sepc] "r"(sepc));
 127:src/../h/riscv.hpp **** }
 128:src/../h/riscv.hpp **** inline uint64 Riscv::r_stvec() {
 129:src/../h/riscv.hpp ****     uint64 volatile stvec;
 130:src/../h/riscv.hpp ****     __asm__ volatile ("csrr %[stvec],stvec" : [stvec] "=r"(stvec));
 131:src/../h/riscv.hpp ****     return stvec;
 132:src/../h/riscv.hpp **** }
 133:src/../h/riscv.hpp **** inline void Riscv::w_stvec(uint64 stvec) {
 134:src/../h/riscv.hpp ****     __asm__ volatile ("csrw stvec,%[stvec]" : : [stvec] "r"(stvec));
 152              		.loc 3 134 5 is_stmt 1
 153              		.loc 3 134 68 is_stmt 0
 154              	#APP
 155              	# 134 "src/../h/riscv.hpp" 1
 135              	}
 156              		csrw stvec,a5
 157              	# 0 "" 2
 158              	.LVL11:
GAS LISTING /tmp/ccbskzOy.s 			page 7


 159              	#NO_APP
 160              	.LBE18:
 161              	.LBE17:
  19:src/main.cpp  **** 
  20:src/main.cpp  ****     TCB::running=TCB::createConst(nullptr,nullptr,nullptr);
 162              		.loc 1 20 5 is_stmt 1
 163              		.loc 1 20 34 is_stmt 0
 164 006c 93062000 		li	a3,2
 165 0070 13060000 		li	a2,0
 166 0074 93050000 		li	a1,0
 167 0078 13050000 		li	a0,0
 168 007c 97000000 		call	_ZN3TCB11createConstEPFvPvES0_S0_m@plt
 168      E7800000 
 169              	.LVL12:
 170              		.loc 1 20 17
 171 0084 97070000 		la	a5,_ZN3TCB7runningE
 171      83B70700 
 172 008c 23B0A700 		sd	a0,0(a5)
  21:src/main.cpp  ****     Riscv::buffersReady();
 173              		.loc 1 21 5 is_stmt 1
 174              		.loc 1 21 24 is_stmt 0
 175 0090 97000000 		call	_ZN5Riscv12buffersReadyEv@plt
 175      E7800000 
 176              	.LVL13:
  22:src/main.cpp  ****     TCB::idle=TCB::createConst(TCB::idleBody,nullptr,nullptr);
 177              		.loc 1 22 5 is_stmt 1
 178              		.loc 1 22 31 is_stmt 0
 179 0098 93062000 		li	a3,2
 180 009c 13060000 		li	a2,0
 181 00a0 93050000 		li	a1,0
 182 00a4 17050000 		la	a0,_ZN3TCB8idleBodyEPv
 182      03350500 
 183 00ac 97000000 		call	_ZN3TCB11createConstEPFvPvES0_S0_m@plt
 183      E7800000 
 184              	.LVL14:
 185              		.loc 1 22 14
 186 00b4 97070000 		la	a5,_ZN3TCB4idleE
 186      83B70700 
 187 00bc 23B0A700 		sd	a0,0(a5)
  23:src/main.cpp  ****     TCB::consumer=TCB::createConst(TCB::consumerBody,nullptr,nullptr);
 188              		.loc 1 23 5 is_stmt 1
 189              		.loc 1 23 35 is_stmt 0
 190 00c0 93062000 		li	a3,2
 191 00c4 13060000 		li	a2,0
 192 00c8 93050000 		li	a1,0
 193 00cc 17050000 		la	a0,_ZN3TCB12consumerBodyEPv
 193      03350500 
 194 00d4 97000000 		call	_ZN3TCB11createConstEPFvPvES0_S0_m@plt
 194      E7800000 
 195              	.LVL15:
 196              		.loc 1 23 18
 197 00dc 97070000 		la	a5,_ZN3TCB8consumerE
 197      83B70700 
 198 00e4 23B0A700 		sd	a0,0(a5)
  24:src/main.cpp  ****     TCB::consumer->startThread();
 199              		.loc 1 24 5 is_stmt 1
 200              		.loc 1 24 31 is_stmt 0
GAS LISTING /tmp/ccbskzOy.s 			page 8


 201 00e8 97000000 		call	_ZN3TCB11startThreadEv@plt
 201      E7800000 
 202              	.LVL16:
  25:src/main.cpp  ****     Riscv::ms_sstatus(Riscv::SSTATUS_SIE);
 203              		.loc 1 25 5 is_stmt 1
 204              	.LBB19:
 205              	.LBB20:
 136:src/../h/riscv.hpp **** inline uint64 Riscv::r_stval() {
 137:src/../h/riscv.hpp ****     uint64 volatile stval;
 138:src/../h/riscv.hpp ****     __asm__ volatile ("csrr %[stval], stval" : [stval] "=r"(stval));
 139:src/../h/riscv.hpp ****     return stval;
 140:src/../h/riscv.hpp **** }
 141:src/../h/riscv.hpp **** inline void Riscv::w_stval(uint64 stval) {
 142:src/../h/riscv.hpp ****     __asm__ volatile("csrw stval,%[stval]" : : [stval] "r"(stval));
 143:src/../h/riscv.hpp **** }
 144:src/../h/riscv.hpp **** inline void Riscv::ms_sip(uint64 mask) {
 145:src/../h/riscv.hpp ****     __asm__ volatile ("csrs sip,%[mask]" : : [mask] "r"(mask));
 146:src/../h/riscv.hpp **** }
 147:src/../h/riscv.hpp **** inline void Riscv::mc_sip(uint64 mask) {
 148:src/../h/riscv.hpp ****     __asm__ volatile ("csrc sip,%[mask]" : : [mask] "r"(mask));
 149:src/../h/riscv.hpp **** }
 150:src/../h/riscv.hpp **** inline uint64 Riscv::r_sip() {
 151:src/../h/riscv.hpp ****     uint64 volatile sip;
 152:src/../h/riscv.hpp ****     __asm__ volatile("csrr %[sip],sip" : [sip] "=r"(sip));
 153:src/../h/riscv.hpp ****     return sip;
 154:src/../h/riscv.hpp **** }
 155:src/../h/riscv.hpp **** inline void Riscv::w_sip(uint64 sip) {
 156:src/../h/riscv.hpp ****     __asm__ volatile("csrw sip,%[sip]" : : [sip] "r"(sip));
 157:src/../h/riscv.hpp **** }
 158:src/../h/riscv.hpp **** inline void Riscv::ms_sstatus(uint64 mask) {
 159:src/../h/riscv.hpp ****     __asm__ volatile ("csrs sstatus,%[mask]" : : [mask] "r"(mask));
 206              		.loc 3 159 5
 207              		.loc 3 159 67 is_stmt 0
 208 00f0 93072000 		li	a5,2
 209              	#APP
 210              	# 159 "src/../h/riscv.hpp" 1
 160              	}
 211              		csrs sstatus,a5
 212              	# 0 "" 2
 213              	.LVL17:
 214              	#NO_APP
 215              	.LBE20:
 216              	.LBE19:
  26:src/main.cpp  **** 
  27:src/main.cpp  ****     thread_t user;
 217              		.loc 1 27 5 is_stmt 1
  28:src/main.cpp  ****     Semaphore* sem=new Semaphore(0);
 218              		.loc 1 28 5
 219              		.loc 1 28 35 is_stmt 0
 220 00f8 13050001 		li	a0,16
 221 00fc 97000000 		call	_Znwm@plt
 221      E7800000 
 222              	.LVL18:
 223              	.LEHE0:
 224 0104 93040500 		mv	s1,a0
 225 0108 93050000 		li	a1,0
 226              	.LEHB1:
GAS LISTING /tmp/ccbskzOy.s 			page 9


 227 010c 97000000 		call	_ZN9SemaphoreC1Ej@plt
 227      E7800000 
 228              	.LVL19:
 229              	.LEHE1:
  29:src/main.cpp  **** 
  30:src/main.cpp  ****     thread_create(&user,userWrapper,sem);
 230              		.loc 1 30 5 is_stmt 1 discriminator 3
 231              		.loc 1 30 18 is_stmt 0 discriminator 3
 232 0114 13860400 		mv	a2,s1
 233 0118 97050000 		lla	a1,_Z11userWrapperPv
 233      93850500 
 234 0120 130584FD 		addi	a0,s0,-40
 235              	.LEHB2:
 236 0124 97000000 		call	_Z13thread_createPP3TCBPFvPvES2_@plt
 236      E7800000 
 237              	.LVL20:
  31:src/main.cpp  **** 
  32:src/main.cpp  ****     sem->wait();
 238              		.loc 1 32 5 is_stmt 1 discriminator 3
 239              		.loc 1 32 14 is_stmt 0 discriminator 3
 240 012c 13850400 		mv	a0,s1
 241 0130 97000000 		call	_ZN9Semaphore4waitEv@plt
 241      E7800000 
 242              	.LVL21:
 243              	.L9:
  33:src/main.cpp  **** 
  34:src/main.cpp  ****     while(Riscv::output->getSize()>0) thread_dispatch();
 244              		.loc 1 34 5 is_stmt 1
 245              		.loc 1 34 35
 246              		.loc 1 34 33 is_stmt 0
 247 0138 97070000 		la	a5,_ZN5Riscv6outputE
 247      83B70700 
 248 0140 03B50700 		ld	a0,0(a5)
 249 0144 97000000 		call	_ZNK8_console7getSizeEv@plt
 249      E7800000 
 250              	.LVL22:
 251              		.loc 1 34 35
 252 014c 6358A000 		blez	a0,.L8
 253              		.loc 1 34 39 is_stmt 1 discriminator 2
 254              		.loc 1 34 54 is_stmt 0 discriminator 2
 255 0150 97000000 		call	_Z15thread_dispatchv@plt
 255      E7800000 
 256              	.LVL23:
 257              	.LEHE2:
 258 0158 6FF01FFE 		j	.L9
 259              	.L8:
  35:src/main.cpp  ****     delete sem;
 260              		.loc 1 35 5 is_stmt 1
 261              		.loc 1 35 15 is_stmt 0
 262 015c 638A0400 		beqz	s1,.L10
 263              		.loc 1 35 12 discriminator 1
 264 0160 83B70400 		ld	a5,0(s1)
 265 0164 83B78700 		ld	a5,8(a5)
 266 0168 13850400 		mv	a0,s1
 267 016c E7800700 		jalr	a5
 268              	.LVL24:
 269              	.L10:
GAS LISTING /tmp/ccbskzOy.s 			page 10


  36:src/main.cpp  ****     delete user;
 270              		.loc 1 36 5 is_stmt 1
 271              		.loc 1 36 12 is_stmt 0
 272 0170 833484FD 		ld	s1,-40(s0)
 273              	.LVL25:
 274              		.loc 1 36 16
 275 0174 638E0400 		beqz	s1,.L11
 276              		.loc 1 36 12 discriminator 1
 277 0178 13850400 		mv	a0,s1
 278 017c 97000000 		call	_ZN3TCBD1Ev
 278      E7800000 
 279              	.LVL26:
 280              	.LBB21:
 281              	.LBB22:
  31:src/../h/tcb.hpp ****     static void blockThread(time_t t);
  32:src/../h/tcb.hpp ****     using Body = void (*)(void*);
  33:src/../h/tcb.hpp ****     static TCB* createThread(Body body,void* par,void* stack,uint64 timeSlice=DEFAULT_TIME_SLICE);
  34:src/../h/tcb.hpp **** 
  35:src/../h/tcb.hpp ****     bool isFinished() const{
  36:src/../h/tcb.hpp ****         return finished;
  37:src/../h/tcb.hpp ****     }
  38:src/../h/tcb.hpp ****     static void changeRunning(TCB** old,TCB** newT);
  39:src/../h/tcb.hpp ****     void setFinished(bool finished){
  40:src/../h/tcb.hpp ****         TCB::finished = finished;
  41:src/../h/tcb.hpp ****     }
  42:src/../h/tcb.hpp ****     static void yield();
  43:src/../h/tcb.hpp **** 
  44:src/../h/tcb.hpp ****     uint64 getTimeSlice() const{
  45:src/../h/tcb.hpp ****         return timeSlice;
  46:src/../h/tcb.hpp ****     }
  47:src/../h/tcb.hpp ****     static int thread_exit();
  48:src/../h/tcb.hpp ****     void setTimeSlice(uint64 timeSlice){
  49:src/../h/tcb.hpp ****         TCB::timeSlice = timeSlice;
  50:src/../h/tcb.hpp ****     }
  51:src/../h/tcb.hpp **** 
  52:src/../h/tcb.hpp ****     struct Context{
  53:src/../h/tcb.hpp ****         uint64 x0,ra,sp,gp,tp,x5,x6,x7,s0,s1,a0,a1,a2,a3,a4,a5,a6,a7,s2,s3,s4,s5,s6,s7,s8,s9,s10,s1
  54:src/../h/tcb.hpp ****         Context(uint64 ra,uint64 sp){
  55:src/../h/tcb.hpp ****             this->ra=ra;
  56:src/../h/tcb.hpp ****             this->sp=sp;
  57:src/../h/tcb.hpp ****             x0=gp=tp=x5=x6=x7=s0=s1=a0=a1=a2=a3=a4=a5=a6=a7=s2=s3=s4=s5=s6=s7=s8=s9=s10=s11=x28=x29
  58:src/../h/tcb.hpp ****         }
  59:src/../h/tcb.hpp ****     };
  60:src/../h/tcb.hpp ****     static TCB* running;
  61:src/../h/tcb.hpp ****     void* operator new(uint64 n){
  62:src/../h/tcb.hpp **** 
  63:src/../h/tcb.hpp ****         return MemoryAllocator::mem_alloc(n+ sizeof(MemoryAllocator::MemDescr));
  64:src/../h/tcb.hpp ****     }
  65:src/../h/tcb.hpp ****     void* operator new[](uint64 n){
  66:src/../h/tcb.hpp ****         return MemoryAllocator::mem_alloc(n+ sizeof(MemoryAllocator::MemDescr));
  67:src/../h/tcb.hpp ****     }
  68:src/../h/tcb.hpp ****     void operator delete(void* p) noexcept{
  69:src/../h/tcb.hpp ****         MemoryAllocator::mem_free(p);
 282              		.loc 2 69 9 is_stmt 1 discriminator 1
 283              		.loc 2 69 34 is_stmt 0 discriminator 1
 284 0184 13850400 		mv	a0,s1
 285 0188 97000000 		call	_ZN15MemoryAllocator8mem_freeEPv@plt
GAS LISTING /tmp/ccbskzOy.s 			page 11


 285      E7800000 
 286              	.LVL27:
 287              	.L11:
 288              	.LBE22:
 289              	.LBE21:
  37:src/main.cpp  **** 
  38:src/main.cpp  ****     delete TCB::consumer;
 290              		.loc 1 38 5 is_stmt 1
 291              		.loc 1 38 17 is_stmt 0
 292 0190 97070000 		la	a5,_ZN3TCB8consumerE
 292      83B70700 
 293 0198 83B40700 		ld	s1,0(a5)
 294              		.loc 1 38 25
 295 019c 638E0400 		beqz	s1,.L12
 296              		.loc 1 38 17 discriminator 1
 297 01a0 13850400 		mv	a0,s1
 298 01a4 97000000 		call	_ZN3TCBD1Ev
 298      E7800000 
 299              	.LVL28:
 300              	.LBB23:
 301              	.LBB24:
 302              		.loc 2 69 9 is_stmt 1 discriminator 1
 303              		.loc 2 69 34 is_stmt 0 discriminator 1
 304 01ac 13850400 		mv	a0,s1
 305 01b0 97000000 		call	_ZN15MemoryAllocator8mem_freeEPv@plt
 305      E7800000 
 306              	.LVL29:
 307              	.L12:
 308              	.LBE24:
 309              	.LBE23:
  39:src/main.cpp  ****     delete TCB::idle;
 310              		.loc 1 39 5 is_stmt 1
 311              		.loc 1 39 17 is_stmt 0
 312 01b8 97070000 		la	a5,_ZN3TCB4idleE
 312      83B70700 
 313 01c0 83B40700 		ld	s1,0(a5)
 314              		.loc 1 39 21
 315 01c4 638E0400 		beqz	s1,.L13
 316              		.loc 1 39 17 discriminator 1
 317 01c8 13850400 		mv	a0,s1
 318 01cc 97000000 		call	_ZN3TCBD1Ev
 318      E7800000 
 319              	.LVL30:
 320              	.LBB25:
 321              	.LBB26:
 322              		.loc 2 69 9 is_stmt 1 discriminator 1
 323              		.loc 2 69 34 is_stmt 0 discriminator 1
 324 01d4 13850400 		mv	a0,s1
 325 01d8 97000000 		call	_ZN15MemoryAllocator8mem_freeEPv@plt
 325      E7800000 
 326              	.LVL31:
 327              	.L13:
 328              	.LBE26:
 329              	.LBE25:
  40:src/main.cpp  **** 
  41:src/main.cpp  ****     delete TCB::running;
 330              		.loc 1 41 5 is_stmt 1
GAS LISTING /tmp/ccbskzOy.s 			page 12


 331              		.loc 1 41 17 is_stmt 0
 332 01e0 97070000 		la	a5,_ZN3TCB7runningE
 332      83B70700 
 333 01e8 83B40700 		ld	s1,0(a5)
 334              		.loc 1 41 24
 335 01ec 638E0400 		beqz	s1,.L14
 336              		.loc 1 41 17 discriminator 1
 337 01f0 13850400 		mv	a0,s1
 338 01f4 97000000 		call	_ZN3TCBD1Ev
 338      E7800000 
 339              	.LVL32:
 340              	.LBB27:
 341              	.LBB28:
 342              		.loc 2 69 9 is_stmt 1 discriminator 1
 343              		.loc 2 69 34 is_stmt 0 discriminator 1
 344 01fc 13850400 		mv	a0,s1
 345 0200 97000000 		call	_ZN15MemoryAllocator8mem_freeEPv@plt
 345      E7800000 
 346              	.LVL33:
 347              	.L14:
 348              	.LBE28:
 349              	.LBE27:
  42:src/main.cpp  **** 
  43:src/main.cpp  **** 
  44:src/main.cpp  **** 
  45:src/main.cpp  ****     Riscv::mc_sstatus(Riscv::SSTATUS_SPP);
 350              		.loc 1 45 5 is_stmt 1
 351              	.LBB29:
 352              	.LBB30:
 161:src/../h/riscv.hpp **** inline void Riscv::mc_sstatus(uint64 mask) {
 162:src/../h/riscv.hpp ****     __asm__ volatile ("csrc sstatus,%[mask]" : : [mask] "r"(mask));
 353              		.loc 3 162 5
 354              		.loc 3 162 67 is_stmt 0
 355 0208 93070010 		li	a5,256
 356              	#APP
 357              	# 162 "src/../h/riscv.hpp" 1
 163              	}
 358              		csrc sstatus,a5
 359              	# 0 "" 2
 360              	.LVL34:
 361              	#NO_APP
 362              	.LBE30:
 363              	.LBE29:
  46:src/main.cpp  **** 
  47:src/main.cpp  **** 
  48:src/main.cpp  ****     return 0;
 364              		.loc 1 48 5 is_stmt 1
  49:src/main.cpp  **** }...
 365              		.loc 1 49 1 is_stmt 0
 366 0210 13050000 		li	a0,0
 367 0214 83308102 		ld	ra,40(sp)
 368              		.cfi_remember_state
 369              		.cfi_restore 1
 370 0218 03340102 		ld	s0,32(sp)
 371              		.cfi_restore 8
 372              		.cfi_def_cfa 2, 48
 373 021c 83348101 		ld	s1,24(sp)
GAS LISTING /tmp/ccbskzOy.s 			page 13


 374              		.cfi_restore 9
 375 0220 03390101 		ld	s2,16(sp)
 376              		.cfi_restore 18
 377 0224 13010103 		addi	sp,sp,48
 378              		.cfi_def_cfa_offset 0
 379 0228 67800000 		jr	ra
 380              	.L16:
 381              		.cfi_restore_state
 382 022c 13090500 		mv	s2,a0
  28:src/main.cpp  ****     Semaphore* sem=new Semaphore(0);
 383              		.loc 1 28 35
 384 0230 13850400 		mv	a0,s1
 385 0234 97000000 		call	_ZdlPv@plt
 385      E7800000 
 386              	.LVL35:
 387 023c 13050900 		mv	a0,s2
 388              	.LEHB3:
 389 0240 97000000 		call	_Unwind_Resume@plt
 389      E7800000 
 390              	.LVL36:
 391              	.LEHE3:
 392              		.cfi_endproc
 393              	.LFE82:
 394              		.globl	__gxx_personality_v0
 395              		.section	.gcc_except_table,"a",@progbits
 396              	.LLSDA82:
 397 0000 FF       		.byte	0xff
 398 0001 FF       		.byte	0xff
 399 0002 03       		.byte	0x3
 400 0003 34       		.byte	0x34
 401 0004 00000000 		.4byte	.LEHB0-.LFB82
 402 0008 00000000 		.4byte	.LEHE0-.LEHB0
 403 000c 00000000 		.4byte	0
 404 0010 00       		.byte	0
 405 0011 00000000 		.4byte	.LEHB1-.LFB82
 406 0015 00000000 		.4byte	.LEHE1-.LEHB1
 407 0019 00000000 		.4byte	.L16-.LFB82
 408 001d 00       		.byte	0
 409 001e 00000000 		.4byte	.LEHB2-.LFB82
 410 0022 00000000 		.4byte	.LEHE2-.LEHB2
 411 0026 00000000 		.4byte	0
 412 002a 00       		.byte	0
 413 002b 00000000 		.4byte	.LEHB3-.LFB82
 414 002f 00000000 		.4byte	.LEHE3-.LEHB3
 415 0033 00000000 		.4byte	0
 416 0037 00       		.byte	0
 417              		.text
 419              	.Letext0:
 420              		.file 4 "src/../h/../lib/hw.h"
 421              		.file 5 "src/../h/MemoryAllocator.hpp"
 422              		.file 6 "src/../h/../h/codes.hpp"
 423              		.file 7 "src/../h/syscall_c.h"
 424              		.file 8 "src/../h/_sem.hpp"
 425              		.file 9 "src/../h/list.hpp"
 426              		.file 10 "src/../h/_console.hpp"
 427              		.file 11 "src/../h/syscall_cpp.hpp"
 4973              		.align	3
GAS LISTING /tmp/ccbskzOy.s 			page 14


 4976              	DW.ref.__gxx_personality_v0:
 4977 0000 00000000 		.dword	__gxx_personality_v0
 4977      00000000 
 4978              		.ident	"GCC: (Ubuntu 9.4.0-1ubuntu1~20.04) 9.4.0"
 4979              		.section	.note.GNU-stack,"",@progbits
GAS LISTING /tmp/ccbskzOy.s 			page 15

