GAS LISTING /tmp/cc8Nyx6Y.s 			page 1


   1              		.file	"riscv.cpp"
   2              		.option pic
   3              		.option norelax
   4              		.text
   5              	.Ltext0:
   6              		.section	.rodata.str1.8,"aMS",@progbits,1
   7              		.align	3
   8              	.LC0:
   9 0000 496E7661 		.string	"Invalid code\n"
   9      6C696420 
   9      636F6465 
   9      0A00
  10              		.text
  11              		.align	2
  12              		.globl	_ZN5Riscv7syscallEmmmmm
  14              	_ZN5Riscv7syscallEmmmmm:
  15              	.LFB79:
  16              		.file 1 "src/riscv.cpp"
   1:src/riscv.cpp **** //
   2:src/riscv.cpp **** // Created by os on 8/11/22.
   3:src/riscv.cpp **** //
   4:src/riscv.cpp **** 
   5:src/riscv.cpp **** #include "../h/riscv.hpp"
   6:src/riscv.cpp **** 
   7:src/riscv.cpp **** 
   8:src/riscv.cpp **** _console *Riscv::input =nullptr;
   9:src/riscv.cpp **** _console *Riscv::output =nullptr;
  10:src/riscv.cpp **** char Riscv::digits[]="0123456789ABCDEF";
  11:src/riscv.cpp **** enum InterCodes: uint64
  12:src/riscv.cpp **** {
  13:src/riscv.cpp ****     SOFT= 0x8000000000000001UL,
  14:src/riscv.cpp ****     ECALL_S=0x0000000000000009UL,
  15:src/riscv.cpp ****     ECALL_U=0x0000000000000008UL,
  16:src/riscv.cpp ****     HARD= 0x8000000000000009UL
  17:src/riscv.cpp **** };
  18:src/riscv.cpp **** 
  19:src/riscv.cpp **** void Riscv::syscall(uint64 code,uint64 a1,uint64 a2,uint64 a3,uint64 a4) {
  17              		.loc 1 19 74
  18              		.cfi_startproc
  19              	.LVL0:
  20 0000 130101F8 		addi	sp,sp,-128
  21              		.cfi_def_cfa_offset 128
  22 0004 233C1106 		sd	ra,120(sp)
  23 0008 23388106 		sd	s0,112(sp)
  24 000c 23349106 		sd	s1,104(sp)
  25 0010 23302107 		sd	s2,96(sp)
  26              		.cfi_offset 1, -8
  27              		.cfi_offset 8, -16
  28              		.cfi_offset 9, -24
  29              		.cfi_offset 18, -32
  30 0014 13040108 		addi	s0,sp,128
  31              		.cfi_def_cfa 8, 0
  20:src/riscv.cpp **** 
  21:src/riscv.cpp ****     //__asm__ volatile("mv %0,a0" : "=r"(code));
  22:src/riscv.cpp ****     switch(code){
  32              		.loc 1 22 5
  33 0018 93072004 		li	a5,66
GAS LISTING /tmp/cc8Nyx6Y.s 			page 2


  34 001c 63ECA73A 		bgtu	a0,a5,.L2
  35 0020 93840500 		mv	s1,a1
  36 0024 13090600 		mv	s2,a2
  37 0028 93850600 		mv	a1,a3
  38              	.LVL1:
  39 002c 13152500 		slli	a0,a0,2
  40              	.LVL2:
  41 0030 97060000 		lla	a3,.L4
  41      93860600 
  42              	.LVL3:
  43 0038 3305D500 		add	a0,a0,a3
  44 003c 83270500 		lw	a5,0(a0)
  45 0040 B387D700 		add	a5,a5,a3
  46 0044 67800700 		jr	a5
  47              		.section	.rodata
  48              		.align	2
  49              		.align	2
  50              	.L4:
  51 0000 00000000 		.word	.L2-.L4
  52 0004 00000000 		.word	.L20-.L4
  53 0008 00000000 		.word	.L19-.L4
  54 000c 00000000 		.word	.L18-.L4
  55 0010 00000000 		.word	.L17-.L4
  56 0014 00000000 		.word	.L16-.L4
  57 0018 00000000 		.word	.L15-.L4
  58 001c 00000000 		.word	.L2-.L4
  59 0020 00000000 		.word	.L2-.L4
  60 0024 00000000 		.word	.L2-.L4
  61 0028 00000000 		.word	.L2-.L4
  62 002c 00000000 		.word	.L2-.L4
  63 0030 00000000 		.word	.L2-.L4
  64 0034 00000000 		.word	.L2-.L4
  65 0038 00000000 		.word	.L2-.L4
  66 003c 00000000 		.word	.L2-.L4
  67 0040 00000000 		.word	.L2-.L4
  68 0044 00000000 		.word	.L14-.L4
  69 0048 00000000 		.word	.L13-.L4
  70 004c 00000000 		.word	.L12-.L4
  71 0050 00000000 		.word	.L11-.L4
  72 0054 00000000 		.word	.L2-.L4
  73 0058 00000000 		.word	.L2-.L4
  74 005c 00000000 		.word	.L2-.L4
  75 0060 00000000 		.word	.L2-.L4
  76 0064 00000000 		.word	.L2-.L4
  77 0068 00000000 		.word	.L2-.L4
  78 006c 00000000 		.word	.L2-.L4
  79 0070 00000000 		.word	.L2-.L4
  80 0074 00000000 		.word	.L2-.L4
  81 0078 00000000 		.word	.L2-.L4
  82 007c 00000000 		.word	.L2-.L4
  83 0080 00000000 		.word	.L2-.L4
  84 0084 00000000 		.word	.L10-.L4
  85 0088 00000000 		.word	.L9-.L4
  86 008c 00000000 		.word	.L8-.L4
  87 0090 00000000 		.word	.L7-.L4
  88 0094 00000000 		.word	.L2-.L4
  89 0098 00000000 		.word	.L2-.L4
GAS LISTING /tmp/cc8Nyx6Y.s 			page 3


  90 009c 00000000 		.word	.L2-.L4
  91 00a0 00000000 		.word	.L2-.L4
  92 00a4 00000000 		.word	.L2-.L4
  93 00a8 00000000 		.word	.L2-.L4
  94 00ac 00000000 		.word	.L2-.L4
  95 00b0 00000000 		.word	.L2-.L4
  96 00b4 00000000 		.word	.L2-.L4
  97 00b8 00000000 		.word	.L2-.L4
  98 00bc 00000000 		.word	.L2-.L4
  99 00c0 00000000 		.word	.L2-.L4
 100 00c4 00000000 		.word	.L6-.L4
 101 00c8 00000000 		.word	.L2-.L4
 102 00cc 00000000 		.word	.L2-.L4
 103 00d0 00000000 		.word	.L2-.L4
 104 00d4 00000000 		.word	.L2-.L4
 105 00d8 00000000 		.word	.L2-.L4
 106 00dc 00000000 		.word	.L2-.L4
 107 00e0 00000000 		.word	.L2-.L4
 108 00e4 00000000 		.word	.L2-.L4
 109 00e8 00000000 		.word	.L2-.L4
 110 00ec 00000000 		.word	.L2-.L4
 111 00f0 00000000 		.word	.L2-.L4
 112 00f4 00000000 		.word	.L2-.L4
 113 00f8 00000000 		.word	.L2-.L4
 114 00fc 00000000 		.word	.L2-.L4
 115 0100 00000000 		.word	.L2-.L4
 116 0104 00000000 		.word	.L5-.L4
 117 0108 00000000 		.word	.L3-.L4
 118              		.text
 119              	.L20:
 120              	.LBB145:
  23:src/riscv.cpp ****         case MEM_ALLOC:{
 121              		.loc 1 23 9
 122              		.loc 1 23 24
 123              	.LBB146:
  24:src/riscv.cpp ****             size_t size=a1*MEM_BLOCK_SIZE;
 124              		.loc 1 24 13
 125              	.LVL4:
  25:src/riscv.cpp ****             TCB::running->context.a0=(uint64)MemoryAllocator::mem_alloc(size);
 126              		.loc 1 25 13
 127              		.loc 1 25 72 is_stmt 0
 128 0048 13956400 		slli	a0,s1,6
 129              	.LVL5:
 130 004c 97000000 		call	_ZN15MemoryAllocator9mem_allocEm@plt
 130      E7800000 
 131              	.LVL6:
 132              		.loc 1 25 35
 133 0054 97070000 		la	a5,_ZN3TCB7runningE
 133      83B70700 
 134 005c 83B70700 		ld	a5,0(a5)
 135              		.loc 1 25 37
 136 0060 23BCA704 		sd	a0,88(a5)
 137              	.LBE146:
  26:src/riscv.cpp ****         }
  27:src/riscv.cpp ****         break;
 138              		.loc 1 27 9 is_stmt 1
 139              	.LVL7:
GAS LISTING /tmp/cc8Nyx6Y.s 			page 4


 140              	.L1:
 141              	.LBE145:
  28:src/riscv.cpp ****         case MEM_FREE:{
  29:src/riscv.cpp ****             TCB::running->context.a0=MemoryAllocator::mem_free((void*)a1);
  30:src/riscv.cpp ****         }
  31:src/riscv.cpp ****         break;
  32:src/riscv.cpp ****         case USER_MOD:{
  33:src/riscv.cpp ****             mc_sstatus(SSTATUS_SPP);
  34:src/riscv.cpp ****         }
  35:src/riscv.cpp ****         break;
  36:src/riscv.cpp ****         case THREAD_CREATE:
  37:src/riscv.cpp ****         {
  38:src/riscv.cpp ****             thread_t* handle=(thread_t*)a1;
  39:src/riscv.cpp ****             TCB::Body body=(TCB::Body)a2;
  40:src/riscv.cpp ****             void* arg=(void*)a3;
  41:src/riscv.cpp ****             void* stack=(void*)a4;
  42:src/riscv.cpp ****             *handle = TCB::createConst(body,arg,stack);
  43:src/riscv.cpp ****             (*handle)->startThread();
  44:src/riscv.cpp ****             TCB::running->context.a0=(*handle==0?-1:0);
  45:src/riscv.cpp **** 
  46:src/riscv.cpp ****         }
  47:src/riscv.cpp ****         break;
  48:src/riscv.cpp ****         case THREAD_MAKE:{
  49:src/riscv.cpp ****             thread_t* handle=(thread_t*)a1;
  50:src/riscv.cpp ****             TCB::Body body=(TCB::Body)a2;
  51:src/riscv.cpp ****             void* arg=(void*)a3;
  52:src/riscv.cpp ****             void* stack=(void*)a4;
  53:src/riscv.cpp ****             *handle = TCB::createConst(body,arg,stack);
  54:src/riscv.cpp ****             TCB::running->context.a0=(*handle==0?-1:0);
  55:src/riscv.cpp ****         }
  56:src/riscv.cpp ****         break;
  57:src/riscv.cpp ****         case THREAD_EXIT:
  58:src/riscv.cpp ****         {
  59:src/riscv.cpp ****             TCB::running->context.a0=TCB::thread_exit();
  60:src/riscv.cpp ****         }
  61:src/riscv.cpp ****         break;
  62:src/riscv.cpp ****         case THREAD_DISPATCH:{
  63:src/riscv.cpp ****             uint64 sepc=r_sepc();
  64:src/riscv.cpp ****             TCB::running->context.sepc=sepc;
  65:src/riscv.cpp ****             uint64 sstatus=r_sstatus();
  66:src/riscv.cpp ****             TCB::running->context.sstatus=sstatus;
  67:src/riscv.cpp ****             //TCB::timeSliceCounter=0;
  68:src/riscv.cpp ****             TCB::dispatch();
  69:src/riscv.cpp ****             w_sepc(TCB::running->context.sepc);
  70:src/riscv.cpp ****             w_sstatus(TCB::running->context.sstatus);
  71:src/riscv.cpp **** 
  72:src/riscv.cpp ****         }
  73:src/riscv.cpp ****         break;
  74:src/riscv.cpp ****         case SEM_OPEN:
  75:src/riscv.cpp ****         {
  76:src/riscv.cpp ****             sem_t* handle=(sem_t*)a1;
  77:src/riscv.cpp ****             unsigned init=(unsigned)a2;
  78:src/riscv.cpp ****             *handle=new Sem(init);
  79:src/riscv.cpp ****             TCB::running->context.a0=0;
  80:src/riscv.cpp **** 
  81:src/riscv.cpp ****         } break;
  82:src/riscv.cpp ****         case SEM_CLOSE:
GAS LISTING /tmp/cc8Nyx6Y.s 			page 5


  83:src/riscv.cpp ****         {
  84:src/riscv.cpp ****             sem_t handle=(sem_t)a1;
  85:src/riscv.cpp ****             TCB::running->context.a0=handle->close();
  86:src/riscv.cpp ****         } break;
  87:src/riscv.cpp ****         case SEM_SIGNAL:
  88:src/riscv.cpp ****         {
  89:src/riscv.cpp ****             sem_t id=(sem_t)a1;
  90:src/riscv.cpp ****             TCB::running->context.a0=id->signal();
  91:src/riscv.cpp ****         }
  92:src/riscv.cpp ****         break;
  93:src/riscv.cpp ****         case SEM_WAIT:
  94:src/riscv.cpp ****         {
  95:src/riscv.cpp ****             sem_t id=(sem_t)a1;
  96:src/riscv.cpp ****             uint64 sepc=r_sepc();
  97:src/riscv.cpp ****             TCB::running->context.sepc=sepc;
  98:src/riscv.cpp ****             uint64 sstatus=r_sstatus();
  99:src/riscv.cpp ****             TCB::running->context.sstatus=sstatus;
 100:src/riscv.cpp ****             //TCB::timeSliceCounter=0;
 101:src/riscv.cpp ****             TCB::running->context.a0=id->wait();
 102:src/riscv.cpp ****             w_sepc(TCB::running->context.sepc);
 103:src/riscv.cpp ****             w_sstatus(TCB::running->context.sstatus);
 104:src/riscv.cpp ****         }
 105:src/riscv.cpp ****         break;
 106:src/riscv.cpp ****         case TIME_SLEEP:
 107:src/riscv.cpp ****         {
 108:src/riscv.cpp ****             uint64 sepc=r_sepc();
 109:src/riscv.cpp ****             TCB::running->context.sepc=sepc;
 110:src/riscv.cpp ****             uint64 sstatus=r_sstatus();
 111:src/riscv.cpp ****             TCB::running->context.sstatus=sstatus;
 112:src/riscv.cpp ****             //TCB::timeSliceCounter=0;
 113:src/riscv.cpp ****             TCB::blockThread((time_t)a1);
 114:src/riscv.cpp ****             w_sepc(TCB::running->context.sepc);
 115:src/riscv.cpp ****             w_sstatus(TCB::running->context.sstatus);
 116:src/riscv.cpp ****             TCB::running->context.a0=0;
 117:src/riscv.cpp ****         }
 118:src/riscv.cpp ****         break;
 119:src/riscv.cpp ****         case GETC:
 120:src/riscv.cpp ****         {
 121:src/riscv.cpp ****             uint64 sepc=r_sepc();
 122:src/riscv.cpp ****             TCB::running->context.sepc=sepc;
 123:src/riscv.cpp ****             uint64 sstatus=r_sstatus();
 124:src/riscv.cpp ****             TCB::running->context.sstatus=sstatus;
 125:src/riscv.cpp ****             char c=input->cons_get();
 126:src/riscv.cpp ****             TCB::running->context.a0=(uint64)c;
 127:src/riscv.cpp ****             w_sepc(TCB::running->context.sepc);
 128:src/riscv.cpp ****             w_sstatus(TCB::running->context.sstatus);
 129:src/riscv.cpp ****             __asm__ volatile("mv a0,%0": : "r"((uint64)c));
 130:src/riscv.cpp ****         }
 131:src/riscv.cpp ****         break;
 132:src/riscv.cpp ****         case PUTC:
 133:src/riscv.cpp ****         {
 134:src/riscv.cpp ****             uint64 sepc=r_sepc();
 135:src/riscv.cpp ****             TCB::running->context.sepc=sepc;
 136:src/riscv.cpp ****             uint64 sstatus=r_sstatus();
 137:src/riscv.cpp ****             TCB::running->context.sstatus=sstatus;
 138:src/riscv.cpp ****             output->cons_put((char)a1);
 139:src/riscv.cpp ****             w_sepc(TCB::running->context.sepc);
GAS LISTING /tmp/cc8Nyx6Y.s 			page 6


 140:src/riscv.cpp ****             w_sstatus(TCB::running->context.sstatus);
 141:src/riscv.cpp **** 
 142:src/riscv.cpp ****         } break;
 143:src/riscv.cpp ****         case GET_ID:
 144:src/riscv.cpp ****         {
 145:src/riscv.cpp ****             uint64 sepc=r_sepc();
 146:src/riscv.cpp ****             TCB::running->context.sepc=sepc;
 147:src/riscv.cpp ****             uint64 sstatus=r_sstatus();
 148:src/riscv.cpp ****             TCB::running->context.sstatus=sstatus;
 149:src/riscv.cpp ****             //TCB::timeSliceCounter=0;
 150:src/riscv.cpp ****             TCB::dispatch();
 151:src/riscv.cpp ****             w_sepc(TCB::running->context.sepc);
 152:src/riscv.cpp ****             w_sstatus(TCB::running->context.sstatus);
 153:src/riscv.cpp ****             TCB::running->context.a0=TCB::running->id;
 154:src/riscv.cpp ****         } break;
 155:src/riscv.cpp ****         case BLOCK:
 156:src/riscv.cpp ****         {
 157:src/riscv.cpp ****             mc_sstatus(SSTATUS_SPIE);
 158:src/riscv.cpp ****         }
 159:src/riscv.cpp ****         break;
 160:src/riscv.cpp ****         case UNBLOCK:
 161:src/riscv.cpp ****         {
 162:src/riscv.cpp ****             ms_sstatus(SSTATUS_SPIE);
 163:src/riscv.cpp ****         }break;
 164:src/riscv.cpp ****         default:{
 165:src/riscv.cpp ****             printString("Invalid code\n");
 166:src/riscv.cpp ****         }
 167:src/riscv.cpp ****         break;
 168:src/riscv.cpp ****     }
 169:src/riscv.cpp **** }
 142              		.loc 1 169 1 is_stmt 0
 143 0064 83308107 		ld	ra,120(sp)
 144              		.cfi_remember_state
 145              		.cfi_restore 1
 146 0068 03340107 		ld	s0,112(sp)
 147              		.cfi_restore 8
 148              		.cfi_def_cfa 2, 128
 149 006c 83348106 		ld	s1,104(sp)
 150              		.cfi_restore 9
 151 0070 03390106 		ld	s2,96(sp)
 152              		.cfi_restore 18
 153 0074 13010108 		addi	sp,sp,128
 154              		.cfi_def_cfa_offset 0
 155 0078 67800000 		jr	ra
 156              	.LVL8:
 157              	.L19:
 158              		.cfi_restore_state
 159              	.LBB220:
  28:src/riscv.cpp ****         case MEM_FREE:{
 160              		.loc 1 28 9 is_stmt 1
  28:src/riscv.cpp ****         case MEM_FREE:{
 161              		.loc 1 28 23
  29:src/riscv.cpp ****         }
 162              		.loc 1 29 13
  29:src/riscv.cpp ****         }
 163              		.loc 1 29 63 is_stmt 0
 164 007c 13850400 		mv	a0,s1
GAS LISTING /tmp/cc8Nyx6Y.s 			page 7


 165 0080 97000000 		call	_ZN15MemoryAllocator8mem_freeEPv@plt
 165      E7800000 
 166              	.LVL9:
  29:src/riscv.cpp ****         }
 167              		.loc 1 29 35
 168 0088 97070000 		la	a5,_ZN3TCB7runningE
 168      83B70700 
 169 0090 83B70700 		ld	a5,0(a5)
  29:src/riscv.cpp ****         }
 170              		.loc 1 29 37
 171 0094 23BCA704 		sd	a0,88(a5)
  31:src/riscv.cpp ****         case USER_MOD:{
 172              		.loc 1 31 9 is_stmt 1
 173 0098 6FF0DFFC 		j	.L1
 174              	.LVL10:
 175              	.L18:
  32:src/riscv.cpp ****             mc_sstatus(SSTATUS_SPP);
 176              		.loc 1 32 9
  32:src/riscv.cpp ****             mc_sstatus(SSTATUS_SPP);
 177              		.loc 1 32 23
  33:src/riscv.cpp ****         }
 178              		.loc 1 33 13
 179              	.LBB147:
 180              	.LBB148:
 181              		.file 2 "src/../h/riscv.hpp"
   1:src/../h/riscv.hpp **** //
   2:src/../h/riscv.hpp **** // Created by os on 8/11/22.
   3:src/../h/riscv.hpp **** //
   4:src/../h/riscv.hpp **** 
   5:src/../h/riscv.hpp **** #ifndef PROJECT_BASE_V1_1_RISCV_HPP
   6:src/../h/riscv.hpp **** #define PROJECT_BASE_V1_1_RISCV_HPP
   7:src/../h/riscv.hpp **** #include "../lib/hw.h"
   8:src/../h/riscv.hpp **** #include "../lib/console.h"
   9:src/../h/riscv.hpp **** #include "codes.hpp"
  10:src/../h/riscv.hpp **** #include "tcb.hpp"
  11:src/../h/riscv.hpp **** #include "TimeSleep.hpp"
  12:src/../h/riscv.hpp **** #include "_console.hpp"
  13:src/../h/riscv.hpp **** class Riscv {
  14:src/../h/riscv.hpp **** private:
  15:src/../h/riscv.hpp **** 
  16:src/../h/riscv.hpp ****     static void handleSupervisorTrap();
  17:src/../h/riscv.hpp **** 
  18:src/../h/riscv.hpp ****     static void unexpectedTrap();
  19:src/../h/riscv.hpp **** 
  20:src/../h/riscv.hpp ****     static void syscall(uint64 code,uint64 a1,uint64 a2,uint64 a3,uint64 a4);
  21:src/../h/riscv.hpp ****     static void kernelPrint(char const *string){
  22:src/../h/riscv.hpp ****         while (*string != '\0')
  23:src/../h/riscv.hpp ****         {
  24:src/../h/riscv.hpp ****             output->cons_put((*string));
  25:src/../h/riscv.hpp ****             string++;
  26:src/../h/riscv.hpp ****         }
  27:src/../h/riscv.hpp ****     }
  28:src/../h/riscv.hpp ****     static char digits[];
  29:src/../h/riscv.hpp ****     static void kernelPrintInt(int xx, int base=10, int sgn=0){
  30:src/../h/riscv.hpp ****         char buf[16];
  31:src/../h/riscv.hpp ****         int i, neg;
  32:src/../h/riscv.hpp ****         uint x;
GAS LISTING /tmp/cc8Nyx6Y.s 			page 8


  33:src/../h/riscv.hpp **** 
  34:src/../h/riscv.hpp ****         neg = 0;
  35:src/../h/riscv.hpp ****         if(sgn && xx < 0){
  36:src/../h/riscv.hpp ****             neg = 1;
  37:src/../h/riscv.hpp ****             x = -xx;
  38:src/../h/riscv.hpp ****         } else {
  39:src/../h/riscv.hpp ****             x = xx;
  40:src/../h/riscv.hpp ****         }
  41:src/../h/riscv.hpp **** 
  42:src/../h/riscv.hpp ****         i = 0;
  43:src/../h/riscv.hpp ****         do{
  44:src/../h/riscv.hpp ****             buf[i++] = digits[x % base];
  45:src/../h/riscv.hpp ****         }while((x /= base) != 0);
  46:src/../h/riscv.hpp ****         if(neg)
  47:src/../h/riscv.hpp ****             buf[i++] = '-';
  48:src/../h/riscv.hpp **** 
  49:src/../h/riscv.hpp ****         while(--i >= 0)
  50:src/../h/riscv.hpp ****             output->cons_put(buf[i]);
  51:src/../h/riscv.hpp **** 
  52:src/../h/riscv.hpp ****     }
  53:src/../h/riscv.hpp **** 
  54:src/../h/riscv.hpp **** public:
  55:src/../h/riscv.hpp ****     static uint64 returnValue();
  56:src/../h/riscv.hpp ****     static void determinePrivilege();
  57:src/../h/riscv.hpp ****     static void loadParams(uint64 *);
  58:src/../h/riscv.hpp ****     static void takeArg(Codes c){
  59:src/../h/riscv.hpp ****         __asm__ volatile("mv a4, a3");
  60:src/../h/riscv.hpp ****         __asm__ volatile("mv a3, a2");
  61:src/../h/riscv.hpp ****         __asm__ volatile("mv a2, a1");
  62:src/../h/riscv.hpp ****         __asm__ volatile("mv a1, a0");
  63:src/../h/riscv.hpp ****         __asm__ volatile("mv a0, %0" : : "r"(c));
  64:src/../h/riscv.hpp ****         __asm__ volatile("ecall");
  65:src/../h/riscv.hpp ****     }
  66:src/../h/riscv.hpp ****     static void retTosret();
  67:src/../h/riscv.hpp **** 
  68:src/../h/riscv.hpp ****     static uint64 r_scause();
  69:src/../h/riscv.hpp **** 
  70:src/../h/riscv.hpp ****     static void w_scause(uint64 scause);
  71:src/../h/riscv.hpp **** 
  72:src/../h/riscv.hpp ****     static uint64 r_sepc();
  73:src/../h/riscv.hpp **** 
  74:src/../h/riscv.hpp ****     static void w_sepc(uint64 sepc);
  75:src/../h/riscv.hpp **** 
  76:src/../h/riscv.hpp ****     static uint64 r_stvec();
  77:src/../h/riscv.hpp **** 
  78:src/../h/riscv.hpp ****     static void w_stvec(uint64 stvec);
  79:src/../h/riscv.hpp **** 
  80:src/../h/riscv.hpp ****     static uint64 r_stval();
  81:src/../h/riscv.hpp **** 
  82:src/../h/riscv.hpp ****     static void w_stval(uint64 stval);
  83:src/../h/riscv.hpp **** 
  84:src/../h/riscv.hpp ****     enum BitMaskSip : uint64 {
  85:src/../h/riscv.hpp ****         SIP_SSIP = (1UL << 1),
  86:src/../h/riscv.hpp ****         SIP_STIP = (1UL << 5),
  87:src/../h/riscv.hpp ****         SIP_SEIP = (1UL << 9),
  88:src/../h/riscv.hpp ****     };
  89:src/../h/riscv.hpp **** 
GAS LISTING /tmp/cc8Nyx6Y.s 			page 9


  90:src/../h/riscv.hpp ****     static void ms_sip(uint64 mask);
  91:src/../h/riscv.hpp **** 
  92:src/../h/riscv.hpp ****     static void mc_sip(uint64 mask);
  93:src/../h/riscv.hpp **** 
  94:src/../h/riscv.hpp ****     static uint64 r_sip();
  95:src/../h/riscv.hpp **** 
  96:src/../h/riscv.hpp ****     static void w_sip(uint64 sip);
  97:src/../h/riscv.hpp ****     static void buffersReady();
  98:src/../h/riscv.hpp ****     enum BitMaskSstatus : uint64
  99:src/../h/riscv.hpp ****     {
 100:src/../h/riscv.hpp ****         SSTATUS_SIE=(1UL<<1),
 101:src/../h/riscv.hpp ****         SSTATUS_SPIE=(1UL<<5),
 102:src/../h/riscv.hpp ****         SSTATUS_SPP=(1UL<<8),
 103:src/../h/riscv.hpp ****     };
 104:src/../h/riscv.hpp ****     static void ms_sstatus(uint64 mask);
 105:src/../h/riscv.hpp ****     static void mc_sstatus(uint64 mask);
 106:src/../h/riscv.hpp ****     static uint64 r_sstatus();
 107:src/../h/riscv.hpp ****     static void w_sstatus(uint64 sstatus);
 108:src/../h/riscv.hpp ****     static void supervisorTrap();
 109:src/../h/riscv.hpp ****     static _console *input,*output;
 110:src/../h/riscv.hpp **** 
 111:src/../h/riscv.hpp **** };
 112:src/../h/riscv.hpp **** inline uint64 Riscv::r_scause() {
 113:src/../h/riscv.hpp ****     uint64 volatile scause;
 114:src/../h/riscv.hpp ****     __asm__ volatile ("csrr %[scause], scause" : [scause] "=r"(scause));
 115:src/../h/riscv.hpp ****     return scause;
 116:src/../h/riscv.hpp **** }
 117:src/../h/riscv.hpp **** inline void Riscv::w_scause(uint64 scause) {
 118:src/../h/riscv.hpp ****     __asm__ volatile ("csrw scause, %[scause]" : : [scause] "r"(scause));
 119:src/../h/riscv.hpp **** }
 120:src/../h/riscv.hpp **** inline uint64 Riscv::r_sepc() {
 121:src/../h/riscv.hpp ****     uint64 volatile sepc;
 122:src/../h/riscv.hpp ****     __asm__ volatile ("csrr %[sepc],sepc":[sepc] "=r"(sepc));
 123:src/../h/riscv.hpp ****     return sepc;
 124:src/../h/riscv.hpp **** }
 125:src/../h/riscv.hpp **** inline void Riscv::w_sepc(uint64 sepc) {
 126:src/../h/riscv.hpp ****     __asm__ volatile("csrw sepc,%[sepc]": :[sepc] "r"(sepc));
 127:src/../h/riscv.hpp **** }
 128:src/../h/riscv.hpp **** inline uint64 Riscv::r_stvec() {
 129:src/../h/riscv.hpp ****     uint64 volatile stvec;
 130:src/../h/riscv.hpp ****     __asm__ volatile ("csrr %[stvec],stvec" : [stvec] "=r"(stvec));
 131:src/../h/riscv.hpp ****     return stvec;
 132:src/../h/riscv.hpp **** }
 133:src/../h/riscv.hpp **** inline void Riscv::w_stvec(uint64 stvec) {
 134:src/../h/riscv.hpp ****     __asm__ volatile ("csrw stvec,%[stvec]" : : [stvec] "r"(stvec));
 135:src/../h/riscv.hpp **** }
 136:src/../h/riscv.hpp **** inline uint64 Riscv::r_stval() {
 137:src/../h/riscv.hpp ****     uint64 volatile stval;
 138:src/../h/riscv.hpp ****     __asm__ volatile ("csrr %[stval], stval" : [stval] "=r"(stval));
 139:src/../h/riscv.hpp ****     return stval;
 140:src/../h/riscv.hpp **** }
 141:src/../h/riscv.hpp **** inline void Riscv::w_stval(uint64 stval) {
 142:src/../h/riscv.hpp ****     __asm__ volatile("csrw stval,%[stval]" : : [stval] "r"(stval));
 143:src/../h/riscv.hpp **** }
 144:src/../h/riscv.hpp **** inline void Riscv::ms_sip(uint64 mask) {
 145:src/../h/riscv.hpp ****     __asm__ volatile ("csrs sip,%[mask]" : : [mask] "r"(mask));
 146:src/../h/riscv.hpp **** }
GAS LISTING /tmp/cc8Nyx6Y.s 			page 10


 147:src/../h/riscv.hpp **** inline void Riscv::mc_sip(uint64 mask) {
 148:src/../h/riscv.hpp ****     __asm__ volatile ("csrc sip,%[mask]" : : [mask] "r"(mask));
 149:src/../h/riscv.hpp **** }
 150:src/../h/riscv.hpp **** inline uint64 Riscv::r_sip() {
 151:src/../h/riscv.hpp ****     uint64 volatile sip;
 152:src/../h/riscv.hpp ****     __asm__ volatile("csrr %[sip],sip" : [sip] "=r"(sip));
 153:src/../h/riscv.hpp ****     return sip;
 154:src/../h/riscv.hpp **** }
 155:src/../h/riscv.hpp **** inline void Riscv::w_sip(uint64 sip) {
 156:src/../h/riscv.hpp ****     __asm__ volatile("csrw sip,%[sip]" : : [sip] "r"(sip));
 157:src/../h/riscv.hpp **** }
 158:src/../h/riscv.hpp **** inline void Riscv::ms_sstatus(uint64 mask) {
 159:src/../h/riscv.hpp ****     __asm__ volatile ("csrs sstatus,%[mask]" : : [mask] "r"(mask));
 160:src/../h/riscv.hpp **** }
 161:src/../h/riscv.hpp **** inline void Riscv::mc_sstatus(uint64 mask) {
 162:src/../h/riscv.hpp ****     __asm__ volatile ("csrc sstatus,%[mask]" : : [mask] "r"(mask));
 182              		.loc 2 162 5
 183              		.loc 2 162 67 is_stmt 0
 184 009c 93070010 		li	a5,256
 185              	#APP
 186              	# 162 "src/../h/riscv.hpp" 1
 163              	}
 187              		csrc sstatus,a5
 188              	# 0 "" 2
 189              		.loc 2 163 1
 190              	#NO_APP
 191 00a4 6FF01FFC 		j	.L1
 192              	.LVL11:
 193              	.L14:
 194              	.LBE148:
 195              	.LBE147:
  36:src/riscv.cpp ****         {
 196              		.loc 1 36 9 is_stmt 1
  37:src/riscv.cpp ****             thread_t* handle=(thread_t*)a1;
 197              		.loc 1 37 9
 198              	.LBB149:
  38:src/riscv.cpp ****             TCB::Body body=(TCB::Body)a2;
 199              		.loc 1 38 13
  39:src/riscv.cpp ****             void* arg=(void*)a3;
 200              		.loc 1 39 13
  40:src/riscv.cpp ****             void* stack=(void*)a4;
 201              		.loc 1 40 13
  41:src/riscv.cpp ****             *handle = TCB::createConst(body,arg,stack);
 202              		.loc 1 41 13
  42:src/riscv.cpp ****             (*handle)->startThread();
 203              		.loc 1 42 13
  42:src/riscv.cpp ****             (*handle)->startThread();
 204              		.loc 1 42 39 is_stmt 0
 205 00a8 93062000 		li	a3,2
 206 00ac 13060700 		mv	a2,a4
 207              	.LVL12:
 208 00b0 13050900 		mv	a0,s2
 209 00b4 97000000 		call	_ZN3TCB11createConstEPFvPvES0_S0_m@plt
 209      E7800000 
 210              	.LVL13:
  42:src/riscv.cpp ****             (*handle)->startThread();
 211              		.loc 1 42 21
GAS LISTING /tmp/cc8Nyx6Y.s 			page 11


 212 00bc 23B0A400 		sd	a0,0(s1)
  43:src/riscv.cpp ****             TCB::running->context.a0=(*handle==0?-1:0);
 213              		.loc 1 43 13 is_stmt 1
  43:src/riscv.cpp ****             TCB::running->context.a0=(*handle==0?-1:0);
 214              		.loc 1 43 35 is_stmt 0
 215 00c0 97000000 		call	_ZN3TCB11startThreadEv@plt
 215      E7800000 
 216              	.LVL14:
  44:src/riscv.cpp **** 
 217              		.loc 1 44 13 is_stmt 1
  44:src/riscv.cpp **** 
 218              		.loc 1 44 39 is_stmt 0
 219 00c8 83B70400 		ld	a5,0(s1)
  44:src/riscv.cpp **** 
 220              		.loc 1 44 49
 221 00cc 638E0700 		beqz	a5,.L27
 222 00d0 13070000 		li	a4,0
 223              	.L22:
  44:src/riscv.cpp **** 
 224              		.loc 1 44 35 discriminator 4
 225 00d4 97070000 		la	a5,_ZN3TCB7runningE
 225      83B70700 
 226 00dc 83B70700 		ld	a5,0(a5)
  44:src/riscv.cpp **** 
 227              		.loc 1 44 37 discriminator 4
 228 00e0 23BCE704 		sd	a4,88(a5)
 229              	.LBE149:
  47:src/riscv.cpp ****         case THREAD_MAKE:{
 230              		.loc 1 47 9 is_stmt 1 discriminator 4
 231 00e4 6FF01FF8 		j	.L1
 232              	.L27:
 233              	.LBB150:
  44:src/riscv.cpp **** 
 234              		.loc 1 44 49 is_stmt 0
 235 00e8 1307F0FF 		li	a4,-1
 236 00ec 6FF09FFE 		j	.L22
 237              	.LVL15:
 238              	.L11:
 239              	.LBE150:
  48:src/riscv.cpp ****             thread_t* handle=(thread_t*)a1;
 240              		.loc 1 48 9 is_stmt 1
  48:src/riscv.cpp ****             thread_t* handle=(thread_t*)a1;
 241              		.loc 1 48 26
 242              	.LBB151:
  49:src/riscv.cpp ****             TCB::Body body=(TCB::Body)a2;
 243              		.loc 1 49 13
  50:src/riscv.cpp ****             void* arg=(void*)a3;
 244              		.loc 1 50 13
  51:src/riscv.cpp ****             void* stack=(void*)a4;
 245              		.loc 1 51 13
  52:src/riscv.cpp ****             *handle = TCB::createConst(body,arg,stack);
 246              		.loc 1 52 13
  53:src/riscv.cpp ****             TCB::running->context.a0=(*handle==0?-1:0);
 247              		.loc 1 53 13
  53:src/riscv.cpp ****             TCB::running->context.a0=(*handle==0?-1:0);
 248              		.loc 1 53 39 is_stmt 0
 249 00f0 93062000 		li	a3,2
GAS LISTING /tmp/cc8Nyx6Y.s 			page 12


 250 00f4 13060700 		mv	a2,a4
 251              	.LVL16:
 252 00f8 13050900 		mv	a0,s2
 253 00fc 97000000 		call	_ZN3TCB11createConstEPFvPvES0_S0_m@plt
 253      E7800000 
 254              	.LVL17:
  53:src/riscv.cpp ****             TCB::running->context.a0=(*handle==0?-1:0);
 255              		.loc 1 53 21
 256 0104 23B0A400 		sd	a0,0(s1)
  54:src/riscv.cpp ****         }
 257              		.loc 1 54 13 is_stmt 1
  54:src/riscv.cpp ****         }
 258              		.loc 1 54 49 is_stmt 0
 259 0108 630E0500 		beqz	a0,.L28
 260 010c 13070000 		li	a4,0
 261              	.L23:
  54:src/riscv.cpp ****         }
 262              		.loc 1 54 35 discriminator 4
 263 0110 97070000 		la	a5,_ZN3TCB7runningE
 263      83B70700 
 264 0118 83B70700 		ld	a5,0(a5)
  54:src/riscv.cpp ****         }
 265              		.loc 1 54 37 discriminator 4
 266 011c 23BCE704 		sd	a4,88(a5)
 267              	.LBE151:
  56:src/riscv.cpp ****         case THREAD_EXIT:
 268              		.loc 1 56 9 is_stmt 1 discriminator 4
 269 0120 6FF05FF4 		j	.L1
 270              	.L28:
 271              	.LBB152:
  54:src/riscv.cpp ****         }
 272              		.loc 1 54 49 is_stmt 0
 273 0124 1307F0FF 		li	a4,-1
 274 0128 6FF09FFE 		j	.L23
 275              	.LVL18:
 276              	.L13:
 277              	.LBE152:
  57:src/riscv.cpp ****         {
 278              		.loc 1 57 9 is_stmt 1
  58:src/riscv.cpp ****             TCB::running->context.a0=TCB::thread_exit();
 279              		.loc 1 58 9
  59:src/riscv.cpp ****         }
 280              		.loc 1 59 13
  59:src/riscv.cpp ****         }
 281              		.loc 1 59 54 is_stmt 0
 282 012c 97000000 		call	_ZN3TCB11thread_exitEv@plt
 282      E7800000 
 283              	.LVL19:
  59:src/riscv.cpp ****         }
 284              		.loc 1 59 35
 285 0134 97070000 		la	a5,_ZN3TCB7runningE
 285      83B70700 
 286 013c 83B70700 		ld	a5,0(a5)
  59:src/riscv.cpp ****         }
 287              		.loc 1 59 37
 288 0140 23BCA704 		sd	a0,88(a5)
  61:src/riscv.cpp ****         case THREAD_DISPATCH:{
GAS LISTING /tmp/cc8Nyx6Y.s 			page 13


 289              		.loc 1 61 9 is_stmt 1
 290 0144 6FF01FF2 		j	.L1
 291              	.LVL20:
 292              	.L12:
  62:src/riscv.cpp ****             uint64 sepc=r_sepc();
 293              		.loc 1 62 9
  62:src/riscv.cpp ****             uint64 sepc=r_sepc();
 294              		.loc 1 62 30
 295              	.LBB153:
  63:src/riscv.cpp ****             TCB::running->context.sepc=sepc;
 296              		.loc 1 63 13
 297              	.LBB154:
 298              	.LBB155:
 121:src/../h/riscv.hpp ****     __asm__ volatile ("csrr %[sepc],sepc":[sepc] "=r"(sepc));
 299              		.loc 2 121 5
 122:src/../h/riscv.hpp ****     return sepc;
 300              		.loc 2 122 5
 122:src/../h/riscv.hpp ****     return sepc;
 301              		.loc 2 122 61 is_stmt 0
 302              	#APP
 303              	# 122 "src/../h/riscv.hpp" 1
 304              		csrr a5,sepc
 305              	# 0 "" 2
 306              	#NO_APP
 307 014c 2334F4F8 		sd	a5,-120(s0)
 123:src/../h/riscv.hpp **** }
 308              		.loc 2 123 5 is_stmt 1
 123:src/../h/riscv.hpp **** }
 309              		.loc 2 123 12 is_stmt 0
 310 0150 033784F8 		ld	a4,-120(s0)
 311              	.LVL21:
 312              	.LBE155:
 313              	.LBE154:
  64:src/riscv.cpp ****             uint64 sstatus=r_sstatus();
 314              		.loc 1 64 13 is_stmt 1
  64:src/riscv.cpp ****             uint64 sstatus=r_sstatus();
 315              		.loc 1 64 35 is_stmt 0
 316 0154 97040000 		la	s1,_ZN3TCB7runningE
 316      83B40400 
 317              	.LVL22:
 318 015c 83B70400 		ld	a5,0(s1)
  64:src/riscv.cpp ****             uint64 sstatus=r_sstatus();
 319              		.loc 1 64 39
 320 0160 23B4E710 		sd	a4,264(a5)
  65:src/riscv.cpp ****             TCB::running->context.sstatus=sstatus;
 321              		.loc 1 65 13 is_stmt 1
 322              	.LBB156:
 323              	.LBB157:
 164:src/../h/riscv.hpp **** inline uint64 Riscv::r_sstatus() {
 165:src/../h/riscv.hpp ****     uint64 volatile sstatus;
 324              		.loc 2 165 5
 166:src/../h/riscv.hpp ****     __asm__ volatile("csrr %[sstatus],sstatus" : [sstatus] "=r"(sstatus));
 325              		.loc 2 166 5
 326              		.loc 2 166 74 is_stmt 0
 327              	#APP
 328              	# 166 "src/../h/riscv.hpp" 1
 167              	    return sstatus;
GAS LISTING /tmp/cc8Nyx6Y.s 			page 14


 329              		csrr a4,sstatus
 330              	# 0 "" 2
 331              	.LVL23:
 332              	#NO_APP
 333 0168 2330E4F8 		sd	a4,-128(s0)
 334              		.loc 2 167 5 is_stmt 1
 335              		.loc 2 167 12 is_stmt 0
 336 016c 033704F8 		ld	a4,-128(s0)
 337              	.LVL24:
 338              	.LBE157:
 339              	.LBE156:
  66:src/riscv.cpp ****             //TCB::timeSliceCounter=0;
 340              		.loc 1 66 13 is_stmt 1
  66:src/riscv.cpp ****             //TCB::timeSliceCounter=0;
 341              		.loc 1 66 42 is_stmt 0
 342 0170 23B8E710 		sd	a4,272(a5)
  68:src/riscv.cpp ****             w_sepc(TCB::running->context.sepc);
 343              		.loc 1 68 13 is_stmt 1
  68:src/riscv.cpp ****             w_sepc(TCB::running->context.sepc);
 344              		.loc 1 68 26 is_stmt 0
 345 0174 97000000 		call	_ZN3TCB8dispatchEv@plt
 345      E7800000 
 346              	.LVL25:
  69:src/riscv.cpp ****             w_sstatus(TCB::running->context.sstatus);
 347              		.loc 1 69 13 is_stmt 1
  69:src/riscv.cpp ****             w_sstatus(TCB::running->context.sstatus);
 348              		.loc 1 69 19 is_stmt 0
 349 017c 83B70400 		ld	a5,0(s1)
 350 0180 03B78710 		ld	a4,264(a5)
 351              	.LVL26:
 352              	.LBB158:
 353              	.LBB159:
 126:src/../h/riscv.hpp **** }
 354              		.loc 2 126 5 is_stmt 1
 126:src/../h/riscv.hpp **** }
 355              		.loc 2 126 61 is_stmt 0
 356              	#APP
 357              	# 126 "src/../h/riscv.hpp" 1
 358              		csrw sepc,a4
 359              	# 0 "" 2
 360              	.LVL27:
 361              	#NO_APP
 362              	.LBE159:
 363              	.LBE158:
  70:src/riscv.cpp **** 
 364              		.loc 1 70 13 is_stmt 1
  70:src/riscv.cpp **** 
 365              		.loc 1 70 22 is_stmt 0
 366 0188 83B70711 		ld	a5,272(a5)
 367              	.LVL28:
 368              	.LBB160:
 369              	.LBB161:
 168:src/../h/riscv.hpp **** }
 169:src/../h/riscv.hpp **** inline void Riscv::w_sstatus(uint64 sstatus) {
 170:src/../h/riscv.hpp ****     __asm__ volatile("csrw sstatus,%[sstatus]" : : [sstatus] "r"(sstatus));
 370              		.loc 2 170 5 is_stmt 1
 371              		.loc 2 170 75 is_stmt 0
GAS LISTING /tmp/cc8Nyx6Y.s 			page 15


 372              	#APP
 373              	# 170 "src/../h/riscv.hpp" 1
 171              	}
 374              		csrw sstatus,a5
 375              	# 0 "" 2
 376              		.loc 2 171 1
 377              	#NO_APP
 378 0190 6FF05FED 		j	.L1
 379              	.LVL29:
 380              	.L10:
 381              	.LBE161:
 382              	.LBE160:
 383              	.LBE153:
  74:src/riscv.cpp ****         {
 384              		.loc 1 74 9 is_stmt 1
  75:src/riscv.cpp ****             sem_t* handle=(sem_t*)a1;
 385              		.loc 1 75 9
 386              	.LBB162:
  76:src/riscv.cpp ****             unsigned init=(unsigned)a2;
 387              		.loc 1 76 13
  77:src/riscv.cpp ****             *handle=new Sem(init);
 388              		.loc 1 77 13
  78:src/riscv.cpp ****             TCB::running->context.a0=0;
 389              		.loc 1 78 13
 390              	.LBB163:
 391              	.LBB164:
 392              		.file 3 "src/../h/_sem.hpp"
   1:src/../h/_sem.hpp **** //
   2:src/../h/_sem.hpp **** // Created by os on 8/19/22.
   3:src/../h/_sem.hpp **** //
   4:src/../h/_sem.hpp **** 
   5:src/../h/_sem.hpp **** #ifndef PROJECT_BASE_V1_1__SEM_HPP
   6:src/../h/_sem.hpp **** #define PROJECT_BASE_V1_1__SEM_HPP
   7:src/../h/_sem.hpp **** #include "list.hpp"
   8:src/../h/_sem.hpp **** #include "syscall_c.h"
   9:src/../h/_sem.hpp **** #include "tcb.hpp"
  10:src/../h/_sem.hpp **** #include "scheduler.hpp"
  11:src/../h/_sem.hpp **** 
  12:src/../h/_sem.hpp **** 
  13:src/../h/_sem.hpp **** class Sem {
  14:src/../h/_sem.hpp **** public:
  15:src/../h/_sem.hpp ****     friend class Riscv;
  16:src/../h/_sem.hpp ****     Sem(unsigned initval=1):val(initval),closed(false){}
  17:src/../h/_sem.hpp ****     //static Sem* createSem(unsigned initval=1);
  18:src/../h/_sem.hpp ****     ~Sem();
  19:src/../h/_sem.hpp ****     int wait();
  20:src/../h/_sem.hpp ****     int signal();
  21:src/../h/_sem.hpp ****     int value() const{
  22:src/../h/_sem.hpp ****         return val;
  23:src/../h/_sem.hpp ****     }
  24:src/../h/_sem.hpp ****     void* operator new(uint64 n){
  25:src/../h/_sem.hpp ****         return MemoryAllocator::mem_alloc(n+ sizeof(MemoryAllocator::MemDescr));
 393              		.loc 3 25 9
 394              		.loc 3 25 42 is_stmt 0
 395 0194 13050005 		li	a0,80
 396 0198 97000000 		call	_ZN15MemoryAllocator9mem_allocEm@plt
 396      E7800000 
GAS LISTING /tmp/cc8Nyx6Y.s 			page 16


 397              	.LVL30:
 398              	.LBE164:
 399              	.LBE163:
 400              	.LBB165:
 401              	.LBB166:
  16:src/../h/_sem.hpp ****     //static Sem* createSem(unsigned initval=1);
 402              		.loc 3 16 54
 403 01a0 23202501 		sw	s2,0(a0)
 404              	.LVL31:
 405              	.LBB167:
 406              	.LBB168:
 407              		.file 4 "src/../h/list.hpp"
   1:src/../h/list.hpp **** //
   2:src/../h/list.hpp **** // Created by os on 8/11/22.
   3:src/../h/list.hpp **** //
   4:src/../h/list.hpp **** 
   5:src/../h/list.hpp **** #ifndef PROJECT_BASE_V1_1_LIST_HPP
   6:src/../h/list.hpp **** #define PROJECT_BASE_V1_1_LIST_HPP
   7:src/../h/list.hpp **** #include "MemoryAllocator.hpp"
   8:src/../h/list.hpp **** 
   9:src/../h/list.hpp **** template<typename T>
  10:src/../h/list.hpp **** class List{
  11:src/../h/list.hpp **** private:
  12:src/../h/list.hpp ****     struct Elem{
  13:src/../h/list.hpp ****         T* data;
  14:src/../h/list.hpp ****         Elem* next;
  15:src/../h/list.hpp ****         time_t time;
  16:src/../h/list.hpp ****         Elem(T* data, Elem* next): data(data), next(next),time(0){}
  17:src/../h/list.hpp ****     };
  18:src/../h/list.hpp ****     Elem* head,*tail;
  19:src/../h/list.hpp ****     int size;
  20:src/../h/list.hpp **** public:
  21:src/../h/list.hpp **** 
  22:src/../h/list.hpp ****     int getSize() const {
  23:src/../h/list.hpp ****         return size;
  24:src/../h/list.hpp ****     }
  25:src/../h/list.hpp ****     List():head(0),tail(0),size(0){}
 408              		.loc 4 25 34
 409 01a4 23340500 		sd	zero,8(a0)
 410 01a8 23380500 		sd	zero,16(a0)
 411 01ac 232C0500 		sw	zero,24(a0)
 412              	.LVL32:
 413              	.LBE168:
 414              	.LBE167:
  16:src/../h/_sem.hpp ****     //static Sem* createSem(unsigned initval=1);
 415              		.loc 3 16 54
 416 01b0 23000502 		sb	zero,32(a0)
 417              	.LVL33:
 418              	.LBE166:
 419              	.LBE165:
  78:src/riscv.cpp ****             TCB::running->context.a0=0;
 420              		.loc 1 78 20
 421 01b4 23B0A400 		sd	a0,0(s1)
  79:src/riscv.cpp **** 
 422              		.loc 1 79 13 is_stmt 1
  79:src/riscv.cpp **** 
 423              		.loc 1 79 35 is_stmt 0
GAS LISTING /tmp/cc8Nyx6Y.s 			page 17


 424 01b8 97070000 		la	a5,_ZN3TCB7runningE
 424      83B70700 
 425 01c0 83B70700 		ld	a5,0(a5)
  79:src/riscv.cpp **** 
 426              		.loc 1 79 37
 427 01c4 23BC0704 		sd	zero,88(a5)
 428              	.LBE162:
  81:src/riscv.cpp ****         case SEM_CLOSE:
 429              		.loc 1 81 11 is_stmt 1
 430 01c8 6FF0DFE9 		j	.L1
 431              	.LVL34:
 432              	.L9:
  82:src/riscv.cpp ****         {
 433              		.loc 1 82 9
  83:src/riscv.cpp ****             sem_t handle=(sem_t)a1;
 434              		.loc 1 83 9
 435              	.LBB169:
  84:src/riscv.cpp ****             TCB::running->context.a0=handle->close();
 436              		.loc 1 84 13
  85:src/riscv.cpp ****         } break;
 437              		.loc 1 85 13
  85:src/riscv.cpp ****         } break;
 438              		.loc 1 85 51 is_stmt 0
 439 01cc 13850400 		mv	a0,s1
 440 01d0 97000000 		call	_ZN3Sem5closeEv@plt
 440      E7800000 
 441              	.LVL35:
  85:src/riscv.cpp ****         } break;
 442              		.loc 1 85 35
 443 01d8 97070000 		la	a5,_ZN3TCB7runningE
 443      83B70700 
 444 01e0 83B70700 		ld	a5,0(a5)
  85:src/riscv.cpp ****         } break;
 445              		.loc 1 85 37
 446 01e4 23BCA704 		sd	a0,88(a5)
 447              	.LBE169:
  86:src/riscv.cpp ****         case SEM_SIGNAL:
 448              		.loc 1 86 11 is_stmt 1
 449 01e8 6FF0DFE7 		j	.L1
 450              	.LVL36:
 451              	.L7:
  87:src/riscv.cpp ****         {
 452              		.loc 1 87 9
  88:src/riscv.cpp ****             sem_t id=(sem_t)a1;
 453              		.loc 1 88 9
 454              	.LBB170:
  89:src/riscv.cpp ****             TCB::running->context.a0=id->signal();
 455              		.loc 1 89 13
  90:src/riscv.cpp ****         }
 456              		.loc 1 90 13
  90:src/riscv.cpp ****         }
 457              		.loc 1 90 48 is_stmt 0
 458 01ec 13850400 		mv	a0,s1
 459 01f0 97000000 		call	_ZN3Sem6signalEv@plt
 459      E7800000 
 460              	.LVL37:
  90:src/riscv.cpp ****         }
GAS LISTING /tmp/cc8Nyx6Y.s 			page 18


 461              		.loc 1 90 35
 462 01f8 97070000 		la	a5,_ZN3TCB7runningE
 462      83B70700 
 463 0200 83B70700 		ld	a5,0(a5)
  90:src/riscv.cpp ****         }
 464              		.loc 1 90 37
 465 0204 23BCA704 		sd	a0,88(a5)
 466              	.LBE170:
  92:src/riscv.cpp ****         case SEM_WAIT:
 467              		.loc 1 92 9 is_stmt 1
 468 0208 6FF0DFE5 		j	.L1
 469              	.LVL38:
 470              	.L8:
  93:src/riscv.cpp ****         {
 471              		.loc 1 93 9
  94:src/riscv.cpp ****             sem_t id=(sem_t)a1;
 472              		.loc 1 94 9
 473              	.LBB171:
  95:src/riscv.cpp ****             uint64 sepc=r_sepc();
 474              		.loc 1 95 13
  96:src/riscv.cpp ****             TCB::running->context.sepc=sepc;
 475              		.loc 1 96 13
 476              	.LBB172:
 477              	.LBB173:
 121:src/../h/riscv.hpp ****     __asm__ volatile ("csrr %[sepc],sepc":[sepc] "=r"(sepc));
 478              		.loc 2 121 5
 122:src/../h/riscv.hpp ****     return sepc;
 479              		.loc 2 122 5
 122:src/../h/riscv.hpp ****     return sepc;
 480              		.loc 2 122 61 is_stmt 0
 481              	#APP
 482              	# 122 "src/../h/riscv.hpp" 1
 483              		csrr a5,sepc
 484              	# 0 "" 2
 485              	#NO_APP
 486 0210 233CF4F8 		sd	a5,-104(s0)
 123:src/../h/riscv.hpp **** }
 487              		.loc 2 123 5 is_stmt 1
 123:src/../h/riscv.hpp **** }
 488              		.loc 2 123 12 is_stmt 0
 489 0214 033784F9 		ld	a4,-104(s0)
 490              	.LVL39:
 491              	.LBE173:
 492              	.LBE172:
  97:src/riscv.cpp ****             uint64 sstatus=r_sstatus();
 493              		.loc 1 97 13 is_stmt 1
  97:src/riscv.cpp ****             uint64 sstatus=r_sstatus();
 494              		.loc 1 97 35 is_stmt 0
 495 0218 17090000 		la	s2,_ZN3TCB7runningE
 495      03390900 
 496 0220 83370900 		ld	a5,0(s2)
  97:src/riscv.cpp ****             uint64 sstatus=r_sstatus();
 497              		.loc 1 97 39
 498 0224 23B4E710 		sd	a4,264(a5)
  98:src/riscv.cpp ****             TCB::running->context.sstatus=sstatus;
 499              		.loc 1 98 13 is_stmt 1
 500              	.LBB174:
GAS LISTING /tmp/cc8Nyx6Y.s 			page 19


 501              	.LBB175:
 165:src/../h/riscv.hpp ****     __asm__ volatile("csrr %[sstatus],sstatus" : [sstatus] "=r"(sstatus));
 502              		.loc 2 165 5
 166:src/../h/riscv.hpp ****     return sstatus;
 503              		.loc 2 166 5
 166:src/../h/riscv.hpp ****     return sstatus;
 504              		.loc 2 166 74 is_stmt 0
 505              	#APP
 506              	# 166 "src/../h/riscv.hpp" 1
 507              		csrr a4,sstatus
 508              	# 0 "" 2
 509              	.LVL40:
 510              	#NO_APP
 511 022c 2338E4F8 		sd	a4,-112(s0)
 167:src/../h/riscv.hpp **** }
 512              		.loc 2 167 5 is_stmt 1
 167:src/../h/riscv.hpp **** }
 513              		.loc 2 167 12 is_stmt 0
 514 0230 033704F9 		ld	a4,-112(s0)
 515              	.LVL41:
 516              	.LBE175:
 517              	.LBE174:
  99:src/riscv.cpp ****             //TCB::timeSliceCounter=0;
 518              		.loc 1 99 13 is_stmt 1
  99:src/riscv.cpp ****             //TCB::timeSliceCounter=0;
 519              		.loc 1 99 42 is_stmt 0
 520 0234 23B8E710 		sd	a4,272(a5)
 101:src/riscv.cpp ****             w_sepc(TCB::running->context.sepc);
 521              		.loc 1 101 13 is_stmt 1
 101:src/riscv.cpp ****             w_sepc(TCB::running->context.sepc);
 522              		.loc 1 101 46 is_stmt 0
 523 0238 13850400 		mv	a0,s1
 524 023c 97000000 		call	_ZN3Sem4waitEv@plt
 524      E7800000 
 525              	.LVL42:
 101:src/riscv.cpp ****             w_sepc(TCB::running->context.sepc);
 526              		.loc 1 101 35
 527 0244 83370900 		ld	a5,0(s2)
 101:src/riscv.cpp ****             w_sepc(TCB::running->context.sepc);
 528              		.loc 1 101 37
 529 0248 23BCA704 		sd	a0,88(a5)
 102:src/riscv.cpp ****             w_sstatus(TCB::running->context.sstatus);
 530              		.loc 1 102 13 is_stmt 1
 102:src/riscv.cpp ****             w_sstatus(TCB::running->context.sstatus);
 531              		.loc 1 102 19 is_stmt 0
 532 024c 03B78710 		ld	a4,264(a5)
 533              	.LVL43:
 534              	.LBB176:
 535              	.LBB177:
 126:src/../h/riscv.hpp **** }
 536              		.loc 2 126 5 is_stmt 1
 126:src/../h/riscv.hpp **** }
 537              		.loc 2 126 61 is_stmt 0
 538              	#APP
 539              	# 126 "src/../h/riscv.hpp" 1
 540              		csrw sepc,a4
 541              	# 0 "" 2
GAS LISTING /tmp/cc8Nyx6Y.s 			page 20


 542              	.LVL44:
 543              	#NO_APP
 544              	.LBE177:
 545              	.LBE176:
 103:src/riscv.cpp ****         }
 546              		.loc 1 103 13 is_stmt 1
 103:src/riscv.cpp ****         }
 547              		.loc 1 103 22 is_stmt 0
 548 0254 83B70711 		ld	a5,272(a5)
 549              	.LVL45:
 550              	.LBB178:
 551              	.LBB179:
 170:src/../h/riscv.hpp **** }
 552              		.loc 2 170 5 is_stmt 1
 170:src/../h/riscv.hpp **** }
 553              		.loc 2 170 75 is_stmt 0
 554              	#APP
 555              	# 170 "src/../h/riscv.hpp" 1
 556              		csrw sstatus,a5
 557              	# 0 "" 2
 558              		.loc 2 171 1
 559              	#NO_APP
 560 025c 6FF09FE0 		j	.L1
 561              	.LVL46:
 562              	.L6:
 563              	.LBE179:
 564              	.LBE178:
 565              	.LBE171:
 106:src/riscv.cpp ****         {
 566              		.loc 1 106 9 is_stmt 1
 107:src/riscv.cpp ****             uint64 sepc=r_sepc();
 567              		.loc 1 107 9
 568              	.LBB180:
 108:src/riscv.cpp ****             TCB::running->context.sepc=sepc;
 569              		.loc 1 108 13
 570              	.LBB181:
 571              	.LBB182:
 121:src/../h/riscv.hpp ****     __asm__ volatile ("csrr %[sepc],sepc":[sepc] "=r"(sepc));
 572              		.loc 2 121 5
 122:src/../h/riscv.hpp ****     return sepc;
 573              		.loc 2 122 5
 122:src/../h/riscv.hpp ****     return sepc;
 574              		.loc 2 122 61 is_stmt 0
 575              	#APP
 576              	# 122 "src/../h/riscv.hpp" 1
 577              		csrr a5,sepc
 578              	# 0 "" 2
 579              	#NO_APP
 580 0264 2334F4FA 		sd	a5,-88(s0)
 123:src/../h/riscv.hpp **** }
 581              		.loc 2 123 5 is_stmt 1
 123:src/../h/riscv.hpp **** }
 582              		.loc 2 123 12 is_stmt 0
 583 0268 033784FA 		ld	a4,-88(s0)
 584              	.LVL47:
 585              	.LBE182:
 586              	.LBE181:
GAS LISTING /tmp/cc8Nyx6Y.s 			page 21


 109:src/riscv.cpp ****             uint64 sstatus=r_sstatus();
 587              		.loc 1 109 13 is_stmt 1
 109:src/riscv.cpp ****             uint64 sstatus=r_sstatus();
 588              		.loc 1 109 35 is_stmt 0
 589 026c 17090000 		la	s2,_ZN3TCB7runningE
 589      03390900 
 590 0274 83370900 		ld	a5,0(s2)
 109:src/riscv.cpp ****             uint64 sstatus=r_sstatus();
 591              		.loc 1 109 39
 592 0278 23B4E710 		sd	a4,264(a5)
 110:src/riscv.cpp ****             TCB::running->context.sstatus=sstatus;
 593              		.loc 1 110 13 is_stmt 1
 594              	.LBB183:
 595              	.LBB184:
 165:src/../h/riscv.hpp ****     __asm__ volatile("csrr %[sstatus],sstatus" : [sstatus] "=r"(sstatus));
 596              		.loc 2 165 5
 166:src/../h/riscv.hpp ****     return sstatus;
 597              		.loc 2 166 5
 166:src/../h/riscv.hpp ****     return sstatus;
 598              		.loc 2 166 74 is_stmt 0
 599              	#APP
 600              	# 166 "src/../h/riscv.hpp" 1
 601              		csrr a4,sstatus
 602              	# 0 "" 2
 603              	.LVL48:
 604              	#NO_APP
 605 0280 2330E4FA 		sd	a4,-96(s0)
 167:src/../h/riscv.hpp **** }
 606              		.loc 2 167 5 is_stmt 1
 167:src/../h/riscv.hpp **** }
 607              		.loc 2 167 12 is_stmt 0
 608 0284 033704FA 		ld	a4,-96(s0)
 609              	.LVL49:
 610              	.LBE184:
 611              	.LBE183:
 111:src/riscv.cpp ****             //TCB::timeSliceCounter=0;
 612              		.loc 1 111 13 is_stmt 1
 111:src/riscv.cpp ****             //TCB::timeSliceCounter=0;
 613              		.loc 1 111 42 is_stmt 0
 614 0288 23B8E710 		sd	a4,272(a5)
 113:src/riscv.cpp ****             w_sepc(TCB::running->context.sepc);
 615              		.loc 1 113 13 is_stmt 1
 113:src/riscv.cpp ****             w_sepc(TCB::running->context.sepc);
 616              		.loc 1 113 29 is_stmt 0
 617 028c 13850400 		mv	a0,s1
 618 0290 97000000 		call	_ZN3TCB11blockThreadEm@plt
 618      E7800000 
 619              	.LVL50:
 114:src/riscv.cpp ****             w_sstatus(TCB::running->context.sstatus);
 620              		.loc 1 114 13 is_stmt 1
 114:src/riscv.cpp ****             w_sstatus(TCB::running->context.sstatus);
 621              		.loc 1 114 19 is_stmt 0
 622 0298 83370900 		ld	a5,0(s2)
 623 029c 03B78710 		ld	a4,264(a5)
 624              	.LVL51:
 625              	.LBB185:
 626              	.LBB186:
GAS LISTING /tmp/cc8Nyx6Y.s 			page 22


 126:src/../h/riscv.hpp **** }
 627              		.loc 2 126 5 is_stmt 1
 126:src/../h/riscv.hpp **** }
 628              		.loc 2 126 61 is_stmt 0
 629              	#APP
 630              	# 126 "src/../h/riscv.hpp" 1
 631              		csrw sepc,a4
 632              	# 0 "" 2
 633              	.LVL52:
 634              	#NO_APP
 635              	.LBE186:
 636              	.LBE185:
 115:src/riscv.cpp ****             TCB::running->context.a0=0;
 637              		.loc 1 115 13 is_stmt 1
 115:src/riscv.cpp ****             TCB::running->context.a0=0;
 638              		.loc 1 115 22 is_stmt 0
 639 02a4 03B70711 		ld	a4,272(a5)
 640              	.LVL53:
 641              	.LBB187:
 642              	.LBB188:
 170:src/../h/riscv.hpp **** }
 643              		.loc 2 170 5 is_stmt 1
 170:src/../h/riscv.hpp **** }
 644              		.loc 2 170 75 is_stmt 0
 645              	#APP
 646              	# 170 "src/../h/riscv.hpp" 1
 647              		csrw sstatus,a4
 648              	# 0 "" 2
 649              	.LVL54:
 650              	#NO_APP
 651              	.LBE188:
 652              	.LBE187:
 116:src/riscv.cpp ****         }
 653              		.loc 1 116 13 is_stmt 1
 116:src/riscv.cpp ****         }
 654              		.loc 1 116 37 is_stmt 0
 655 02ac 23BC0704 		sd	zero,88(a5)
 656              	.LBE180:
 118:src/riscv.cpp ****         case GETC:
 657              		.loc 1 118 9 is_stmt 1
 658 02b0 6FF05FDB 		j	.L1
 659              	.LVL55:
 660              	.L5:
 119:src/riscv.cpp ****         {
 661              		.loc 1 119 9
 120:src/riscv.cpp ****             uint64 sepc=r_sepc();
 662              		.loc 1 120 9
 663              	.LBB189:
 121:src/riscv.cpp ****             TCB::running->context.sepc=sepc;
 664              		.loc 1 121 13
 665              	.LBB190:
 666              	.LBB191:
 121:src/../h/riscv.hpp ****     __asm__ volatile ("csrr %[sepc],sepc":[sepc] "=r"(sepc));
 667              		.loc 2 121 5
 122:src/../h/riscv.hpp ****     return sepc;
 668              		.loc 2 122 5
 122:src/../h/riscv.hpp ****     return sepc;
GAS LISTING /tmp/cc8Nyx6Y.s 			page 23


 669              		.loc 2 122 61 is_stmt 0
 670              	#APP
 671              	# 122 "src/../h/riscv.hpp" 1
 672              		csrr a5,sepc
 673              	# 0 "" 2
 674              	#NO_APP
 675 02b8 233CF4FA 		sd	a5,-72(s0)
 123:src/../h/riscv.hpp **** }
 676              		.loc 2 123 5 is_stmt 1
 123:src/../h/riscv.hpp **** }
 677              		.loc 2 123 12 is_stmt 0
 678 02bc 033784FB 		ld	a4,-72(s0)
 679              	.LVL56:
 680              	.LBE191:
 681              	.LBE190:
 122:src/riscv.cpp ****             uint64 sstatus=r_sstatus();
 682              		.loc 1 122 13 is_stmt 1
 122:src/riscv.cpp ****             uint64 sstatus=r_sstatus();
 683              		.loc 1 122 35 is_stmt 0
 684 02c0 97040000 		la	s1,_ZN3TCB7runningE
 684      83B40400 
 685              	.LVL57:
 686 02c8 83B70400 		ld	a5,0(s1)
 122:src/riscv.cpp ****             uint64 sstatus=r_sstatus();
 687              		.loc 1 122 39
 688 02cc 23B4E710 		sd	a4,264(a5)
 123:src/riscv.cpp ****             TCB::running->context.sstatus=sstatus;
 689              		.loc 1 123 13 is_stmt 1
 690              	.LBB192:
 691              	.LBB193:
 165:src/../h/riscv.hpp ****     __asm__ volatile("csrr %[sstatus],sstatus" : [sstatus] "=r"(sstatus));
 692              		.loc 2 165 5
 166:src/../h/riscv.hpp ****     return sstatus;
 693              		.loc 2 166 5
 166:src/../h/riscv.hpp ****     return sstatus;
 694              		.loc 2 166 74 is_stmt 0
 695              	#APP
 696              	# 166 "src/../h/riscv.hpp" 1
 697              		csrr a4,sstatus
 698              	# 0 "" 2
 699              	.LVL58:
 700              	#NO_APP
 701 02d4 2338E4FA 		sd	a4,-80(s0)
 167:src/../h/riscv.hpp **** }
 702              		.loc 2 167 5 is_stmt 1
 167:src/../h/riscv.hpp **** }
 703              		.loc 2 167 12 is_stmt 0
 704 02d8 033704FB 		ld	a4,-80(s0)
 705              	.LVL59:
 706              	.LBE193:
 707              	.LBE192:
 124:src/riscv.cpp ****             char c=input->cons_get();
 708              		.loc 1 124 13 is_stmt 1
 124:src/riscv.cpp ****             char c=input->cons_get();
 709              		.loc 1 124 42 is_stmt 0
 710 02dc 23B8E710 		sd	a4,272(a5)
 125:src/riscv.cpp ****             TCB::running->context.a0=(uint64)c;
GAS LISTING /tmp/cc8Nyx6Y.s 			page 24


 711              		.loc 1 125 13 is_stmt 1
 125:src/riscv.cpp ****             TCB::running->context.a0=(uint64)c;
 712              		.loc 1 125 35 is_stmt 0
 713 02e0 17050000 		ld	a0,.LANCHOR0
 713      03350500 
 714 02e8 97000000 		call	_ZN8_console8cons_getEv@plt
 714      E7800000 
 715              	.LVL60:
 126:src/riscv.cpp ****             w_sepc(TCB::running->context.sepc);
 716              		.loc 1 126 13 is_stmt 1
 126:src/riscv.cpp ****             w_sepc(TCB::running->context.sepc);
 717              		.loc 1 126 35 is_stmt 0
 718 02f0 83B70400 		ld	a5,0(s1)
 126:src/riscv.cpp ****             w_sepc(TCB::running->context.sepc);
 719              		.loc 1 126 37
 720 02f4 23BCA704 		sd	a0,88(a5)
 127:src/riscv.cpp ****             w_sstatus(TCB::running->context.sstatus);
 721              		.loc 1 127 13 is_stmt 1
 127:src/riscv.cpp ****             w_sstatus(TCB::running->context.sstatus);
 722              		.loc 1 127 19 is_stmt 0
 723 02f8 03B78710 		ld	a4,264(a5)
 724              	.LVL61:
 725              	.LBB194:
 726              	.LBB195:
 126:src/../h/riscv.hpp **** }
 727              		.loc 2 126 5 is_stmt 1
 126:src/../h/riscv.hpp **** }
 728              		.loc 2 126 61 is_stmt 0
 729              	#APP
 730              	# 126 "src/../h/riscv.hpp" 1
 731              		csrw sepc,a4
 732              	# 0 "" 2
 733              	.LVL62:
 734              	#NO_APP
 735              	.LBE195:
 736              	.LBE194:
 128:src/riscv.cpp ****             __asm__ volatile("mv a0,%0": : "r"((uint64)c));
 737              		.loc 1 128 13 is_stmt 1
 128:src/riscv.cpp ****             __asm__ volatile("mv a0,%0": : "r"((uint64)c));
 738              		.loc 1 128 22 is_stmt 0
 739 0300 83B70711 		ld	a5,272(a5)
 740              	.LVL63:
 741              	.LBB196:
 742              	.LBB197:
 170:src/../h/riscv.hpp **** }
 743              		.loc 2 170 5 is_stmt 1
 170:src/../h/riscv.hpp **** }
 744              		.loc 2 170 75 is_stmt 0
 745              	#APP
 746              	# 170 "src/../h/riscv.hpp" 1
 747              		csrw sstatus,a5
 748              	# 0 "" 2
 749              	.LVL64:
 750              	#NO_APP
 751              	.LBE197:
 752              	.LBE196:
 129:src/riscv.cpp ****         }
GAS LISTING /tmp/cc8Nyx6Y.s 			page 25


 753              		.loc 1 129 13 is_stmt 1
 129:src/riscv.cpp ****         }
 754              		.loc 1 129 59 is_stmt 0
 755              	#APP
 756              	# 129 "src/riscv.cpp" 1
 757              		mv a0,a0
 758              	# 0 "" 2
 759              	#NO_APP
 760              	.LBE189:
 131:src/riscv.cpp ****         case PUTC:
 761              		.loc 1 131 9 is_stmt 1
 762 030c 6FF09FD5 		j	.L1
 763              	.LVL65:
 764              	.L3:
 132:src/riscv.cpp ****         {
 765              		.loc 1 132 9
 133:src/riscv.cpp ****             uint64 sepc=r_sepc();
 766              		.loc 1 133 9
 767              	.LBB198:
 134:src/riscv.cpp ****             TCB::running->context.sepc=sepc;
 768              		.loc 1 134 13
 769              	.LBB199:
 770              	.LBB200:
 121:src/../h/riscv.hpp ****     __asm__ volatile ("csrr %[sepc],sepc":[sepc] "=r"(sepc));
 771              		.loc 2 121 5
 122:src/../h/riscv.hpp ****     return sepc;
 772              		.loc 2 122 5
 122:src/../h/riscv.hpp ****     return sepc;
 773              		.loc 2 122 61 is_stmt 0
 774              	#APP
 775              	# 122 "src/../h/riscv.hpp" 1
 776              		csrr a5,sepc
 777              	# 0 "" 2
 778              	#NO_APP
 779 0314 2334F4FC 		sd	a5,-56(s0)
 123:src/../h/riscv.hpp **** }
 780              		.loc 2 123 5 is_stmt 1
 123:src/../h/riscv.hpp **** }
 781              		.loc 2 123 12 is_stmt 0
 782 0318 033784FC 		ld	a4,-56(s0)
 783              	.LVL66:
 784              	.LBE200:
 785              	.LBE199:
 135:src/riscv.cpp ****             uint64 sstatus=r_sstatus();
 786              		.loc 1 135 13 is_stmt 1
 135:src/riscv.cpp ****             uint64 sstatus=r_sstatus();
 787              		.loc 1 135 35 is_stmt 0
 788 031c 17090000 		la	s2,_ZN3TCB7runningE
 788      03390900 
 789 0324 83370900 		ld	a5,0(s2)
 135:src/riscv.cpp ****             uint64 sstatus=r_sstatus();
 790              		.loc 1 135 39
 791 0328 23B4E710 		sd	a4,264(a5)
 136:src/riscv.cpp ****             TCB::running->context.sstatus=sstatus;
 792              		.loc 1 136 13 is_stmt 1
 793              	.LBB201:
 794              	.LBB202:
GAS LISTING /tmp/cc8Nyx6Y.s 			page 26


 165:src/../h/riscv.hpp ****     __asm__ volatile("csrr %[sstatus],sstatus" : [sstatus] "=r"(sstatus));
 795              		.loc 2 165 5
 166:src/../h/riscv.hpp ****     return sstatus;
 796              		.loc 2 166 5
 166:src/../h/riscv.hpp ****     return sstatus;
 797              		.loc 2 166 74 is_stmt 0
 798              	#APP
 799              	# 166 "src/../h/riscv.hpp" 1
 800              		csrr a4,sstatus
 801              	# 0 "" 2
 802              	.LVL67:
 803              	#NO_APP
 804 0330 2330E4FC 		sd	a4,-64(s0)
 167:src/../h/riscv.hpp **** }
 805              		.loc 2 167 5 is_stmt 1
 167:src/../h/riscv.hpp **** }
 806              		.loc 2 167 12 is_stmt 0
 807 0334 033704FC 		ld	a4,-64(s0)
 808              	.LVL68:
 809              	.LBE202:
 810              	.LBE201:
 137:src/riscv.cpp ****             output->cons_put((char)a1);
 811              		.loc 1 137 13 is_stmt 1
 137:src/riscv.cpp ****             output->cons_put((char)a1);
 812              		.loc 1 137 42 is_stmt 0
 813 0338 23B8E710 		sd	a4,272(a5)
 138:src/riscv.cpp ****             w_sepc(TCB::running->context.sepc);
 814              		.loc 1 138 13 is_stmt 1
 138:src/riscv.cpp ****             w_sepc(TCB::running->context.sepc);
 815              		.loc 1 138 29 is_stmt 0
 816 033c 93F5F40F 		andi	a1,s1,0xff
 817              	.LVL69:
 818 0340 17050000 		ld	a0,.LANCHOR0+8
 818      03350500 
 819 0348 97000000 		call	_ZN8_console8cons_putEc@plt
 819      E7800000 
 820              	.LVL70:
 139:src/riscv.cpp ****             w_sstatus(TCB::running->context.sstatus);
 821              		.loc 1 139 13 is_stmt 1
 139:src/riscv.cpp ****             w_sstatus(TCB::running->context.sstatus);
 822              		.loc 1 139 19 is_stmt 0
 823 0350 83370900 		ld	a5,0(s2)
 824 0354 03B78710 		ld	a4,264(a5)
 825              	.LVL71:
 826              	.LBB203:
 827              	.LBB204:
 126:src/../h/riscv.hpp **** }
 828              		.loc 2 126 5 is_stmt 1
 126:src/../h/riscv.hpp **** }
 829              		.loc 2 126 61 is_stmt 0
 830              	#APP
 831              	# 126 "src/../h/riscv.hpp" 1
 832              		csrw sepc,a4
 833              	# 0 "" 2
 834              	.LVL72:
 835              	#NO_APP
 836              	.LBE204:
GAS LISTING /tmp/cc8Nyx6Y.s 			page 27


 837              	.LBE203:
 140:src/riscv.cpp **** 
 838              		.loc 1 140 13 is_stmt 1
 140:src/riscv.cpp **** 
 839              		.loc 1 140 22 is_stmt 0
 840 035c 83B70711 		ld	a5,272(a5)
 841              	.LVL73:
 842              	.LBB205:
 843              	.LBB206:
 170:src/../h/riscv.hpp **** }
 844              		.loc 2 170 5 is_stmt 1
 170:src/../h/riscv.hpp **** }
 845              		.loc 2 170 75 is_stmt 0
 846              	#APP
 847              	# 170 "src/../h/riscv.hpp" 1
 848              		csrw sstatus,a5
 849              	# 0 "" 2
 850              		.loc 2 171 1
 851              	#NO_APP
 852 0364 6FF01FD0 		j	.L1
 853              	.LVL74:
 854              	.L17:
 855              	.LBE206:
 856              	.LBE205:
 857              	.LBE198:
 143:src/riscv.cpp ****         {
 858              		.loc 1 143 9 is_stmt 1
 144:src/riscv.cpp ****             uint64 sepc=r_sepc();
 859              		.loc 1 144 9
 860              	.LBB207:
 145:src/riscv.cpp ****             TCB::running->context.sepc=sepc;
 861              		.loc 1 145 13
 862              	.LBB208:
 863              	.LBB209:
 121:src/../h/riscv.hpp ****     __asm__ volatile ("csrr %[sepc],sepc":[sepc] "=r"(sepc));
 864              		.loc 2 121 5
 122:src/../h/riscv.hpp ****     return sepc;
 865              		.loc 2 122 5
 122:src/../h/riscv.hpp ****     return sepc;
 866              		.loc 2 122 61 is_stmt 0
 867              	#APP
 868              	# 122 "src/../h/riscv.hpp" 1
 869              		csrr a5,sepc
 870              	# 0 "" 2
 871              	#NO_APP
 872 036c 233CF4FC 		sd	a5,-40(s0)
 123:src/../h/riscv.hpp **** }
 873              		.loc 2 123 5 is_stmt 1
 123:src/../h/riscv.hpp **** }
 874              		.loc 2 123 12 is_stmt 0
 875 0370 033784FD 		ld	a4,-40(s0)
 876              	.LVL75:
 877              	.LBE209:
 878              	.LBE208:
 146:src/riscv.cpp ****             uint64 sstatus=r_sstatus();
 879              		.loc 1 146 13 is_stmt 1
 146:src/riscv.cpp ****             uint64 sstatus=r_sstatus();
GAS LISTING /tmp/cc8Nyx6Y.s 			page 28


 880              		.loc 1 146 35 is_stmt 0
 881 0374 97040000 		la	s1,_ZN3TCB7runningE
 881      83B40400 
 882              	.LVL76:
 883 037c 83B70400 		ld	a5,0(s1)
 146:src/riscv.cpp ****             uint64 sstatus=r_sstatus();
 884              		.loc 1 146 39
 885 0380 23B4E710 		sd	a4,264(a5)
 147:src/riscv.cpp ****             TCB::running->context.sstatus=sstatus;
 886              		.loc 1 147 13 is_stmt 1
 887              	.LBB210:
 888              	.LBB211:
 165:src/../h/riscv.hpp ****     __asm__ volatile("csrr %[sstatus],sstatus" : [sstatus] "=r"(sstatus));
 889              		.loc 2 165 5
 166:src/../h/riscv.hpp ****     return sstatus;
 890              		.loc 2 166 5
 166:src/../h/riscv.hpp ****     return sstatus;
 891              		.loc 2 166 74 is_stmt 0
 892              	#APP
 893              	# 166 "src/../h/riscv.hpp" 1
 894              		csrr a4,sstatus
 895              	# 0 "" 2
 896              	.LVL77:
 897              	#NO_APP
 898 0388 2338E4FC 		sd	a4,-48(s0)
 167:src/../h/riscv.hpp **** }
 899              		.loc 2 167 5 is_stmt 1
 167:src/../h/riscv.hpp **** }
 900              		.loc 2 167 12 is_stmt 0
 901 038c 033704FD 		ld	a4,-48(s0)
 902              	.LVL78:
 903              	.LBE211:
 904              	.LBE210:
 148:src/riscv.cpp ****             //TCB::timeSliceCounter=0;
 905              		.loc 1 148 13 is_stmt 1
 148:src/riscv.cpp ****             //TCB::timeSliceCounter=0;
 906              		.loc 1 148 42 is_stmt 0
 907 0390 23B8E710 		sd	a4,272(a5)
 150:src/riscv.cpp ****             w_sepc(TCB::running->context.sepc);
 908              		.loc 1 150 13 is_stmt 1
 150:src/riscv.cpp ****             w_sepc(TCB::running->context.sepc);
 909              		.loc 1 150 26 is_stmt 0
 910 0394 97000000 		call	_ZN3TCB8dispatchEv@plt
 910      E7800000 
 911              	.LVL79:
 151:src/riscv.cpp ****             w_sstatus(TCB::running->context.sstatus);
 912              		.loc 1 151 13 is_stmt 1
 151:src/riscv.cpp ****             w_sstatus(TCB::running->context.sstatus);
 913              		.loc 1 151 19 is_stmt 0
 914 039c 83B70400 		ld	a5,0(s1)
 915 03a0 03B78710 		ld	a4,264(a5)
 916              	.LVL80:
 917              	.LBB212:
 918              	.LBB213:
 126:src/../h/riscv.hpp **** }
 919              		.loc 2 126 5 is_stmt 1
 126:src/../h/riscv.hpp **** }
GAS LISTING /tmp/cc8Nyx6Y.s 			page 29


 920              		.loc 2 126 61 is_stmt 0
 921              	#APP
 922              	# 126 "src/../h/riscv.hpp" 1
 923              		csrw sepc,a4
 924              	# 0 "" 2
 925              	.LVL81:
 926              	#NO_APP
 927              	.LBE213:
 928              	.LBE212:
 152:src/riscv.cpp ****             TCB::running->context.a0=TCB::running->id;
 929              		.loc 1 152 13 is_stmt 1
 152:src/riscv.cpp ****             TCB::running->context.a0=TCB::running->id;
 930              		.loc 1 152 22 is_stmt 0
 931 03a8 03B70711 		ld	a4,272(a5)
 932              	.LVL82:
 933              	.LBB214:
 934              	.LBB215:
 170:src/../h/riscv.hpp **** }
 935              		.loc 2 170 5 is_stmt 1
 170:src/../h/riscv.hpp **** }
 936              		.loc 2 170 75 is_stmt 0
 937              	#APP
 938              	# 170 "src/../h/riscv.hpp" 1
 939              		csrw sstatus,a4
 940              	# 0 "" 2
 941              	.LVL83:
 942              	#NO_APP
 943              	.LBE215:
 944              	.LBE214:
 153:src/riscv.cpp ****         } break;
 945              		.loc 1 153 13 is_stmt 1
 153:src/riscv.cpp ****         } break;
 946              		.loc 1 153 52 is_stmt 0
 947 03b0 03A70714 		lw	a4,320(a5)
 153:src/riscv.cpp ****         } break;
 948              		.loc 1 153 37
 949 03b4 23BCE704 		sd	a4,88(a5)
 950              	.LBE207:
 154:src/riscv.cpp ****         case BLOCK:
 951              		.loc 1 154 11 is_stmt 1
 952 03b8 6FF0DFCA 		j	.L1
 953              	.LVL84:
 954              	.L16:
 155:src/riscv.cpp ****         {
 955              		.loc 1 155 9
 156:src/riscv.cpp ****             mc_sstatus(SSTATUS_SPIE);
 956              		.loc 1 156 9
 157:src/riscv.cpp ****         }
 957              		.loc 1 157 13
 958              	.LBB216:
 959              	.LBB217:
 162:src/../h/riscv.hpp **** }
 960              		.loc 2 162 5
 162:src/../h/riscv.hpp **** }
 961              		.loc 2 162 67 is_stmt 0
 962 03bc 93070002 		li	a5,32
 963              	#APP
GAS LISTING /tmp/cc8Nyx6Y.s 			page 30


 964              	# 162 "src/../h/riscv.hpp" 1
 163:src/../h/riscv.hpp **** inline uint64 Riscv::r_sstatus() {
 965              		csrc sstatus,a5
 966              	# 0 "" 2
 967              		.loc 2 163 1
 968              	#NO_APP
 969 03c4 6FF01FCA 		j	.L1
 970              	.LVL85:
 971              	.L15:
 972              	.LBE217:
 973              	.LBE216:
 160:src/riscv.cpp ****         {
 974              		.loc 1 160 9 is_stmt 1
 161:src/riscv.cpp ****             ms_sstatus(SSTATUS_SPIE);
 975              		.loc 1 161 9
 162:src/riscv.cpp ****         }break;
 976              		.loc 1 162 13
 977              	.LBB218:
 978              	.LBB219:
 159:src/../h/riscv.hpp **** }
 979              		.loc 2 159 5
 159:src/../h/riscv.hpp **** }
 980              		.loc 2 159 67 is_stmt 0
 981 03c8 93070002 		li	a5,32
 982              	#APP
 983              	# 159 "src/../h/riscv.hpp" 1
 160:src/../h/riscv.hpp **** inline void Riscv::mc_sstatus(uint64 mask) {
 984              		csrs sstatus,a5
 985              	# 0 "" 2
 986              		.loc 2 160 1
 987              	#NO_APP
 988 03d0 6FF05FC9 		j	.L1
 989              	.LVL86:
 990              	.L2:
 991              	.LBE219:
 992              	.LBE218:
 164:src/riscv.cpp ****             printString("Invalid code\n");
 993              		.loc 1 164 9 is_stmt 1
 164:src/riscv.cpp ****             printString("Invalid code\n");
 994              		.loc 1 164 17
 165:src/riscv.cpp ****         }
 995              		.loc 1 165 13
 165:src/riscv.cpp ****         }
 996              		.loc 1 165 24 is_stmt 0
 997 03d4 17050000 		lla	a0,.LC0
 997      13050500 
 998 03dc 97000000 		call	_Z11printStringPKc@plt
 998      E7800000 
 999              	.LVL87:
 167:src/riscv.cpp ****     }
 1000              		.loc 1 167 9 is_stmt 1
 1001              	.LBE220:
 1002              		.loc 1 169 1 is_stmt 0
 1003 03e4 6FF01FC8 		j	.L1
 1004              		.cfi_endproc
 1005              	.LFE79:
 1007              		.section	.rodata.str1.8
GAS LISTING /tmp/cc8Nyx6Y.s 			page 31


 1008 000e 0000     		.align	3
 1009              	.LC1:
 1010 0010 73636175 		.string	"scause: "
 1010      73653A20 
 1010      00
 1011 0019 00000000 		.align	3
 1011      000000
 1012              	.LC2:
 1013 0020 0A00     		.string	"\n"
 1014 0022 00000000 		.align	3
 1014      0000
 1015              	.LC3:
 1016 0028 73747661 		.string	"stval: "
 1016      6C3A2000 
 1017              		.align	3
 1018              	.LC4:
 1019 0030 73747665 		.string	"stvec: "
 1019      633A2000 
 1020              		.align	3
 1021              	.LC5:
 1022 0038 73657063 		.string	"sepc: "
 1022      3A2000
 1023              		.text
 1024              		.align	2
 1025              		.globl	_ZN5Riscv20handleSupervisorTrapEv
 1027              	_ZN5Riscv20handleSupervisorTrapEv:
 1028              	.LFB80:
 170:src/riscv.cpp **** 
 171:src/riscv.cpp **** 
 172:src/riscv.cpp **** void Riscv::handleSupervisorTrap() {
 1029              		.loc 1 172 36 is_stmt 1
 1030              		.cfi_startproc
 1031 03e8 130101F7 		addi	sp,sp,-144
 1032              		.cfi_def_cfa_offset 144
 1033 03ec 23341108 		sd	ra,136(sp)
 1034 03f0 23308108 		sd	s0,128(sp)
 1035 03f4 233C9106 		sd	s1,120(sp)
 1036 03f8 23382107 		sd	s2,112(sp)
 1037 03fc 23343107 		sd	s3,104(sp)
 1038 0400 23304107 		sd	s4,96(sp)
 1039 0404 233C5105 		sd	s5,88(sp)
 1040              		.cfi_offset 1, -8
 1041              		.cfi_offset 8, -16
 1042              		.cfi_offset 9, -24
 1043              		.cfi_offset 18, -32
 1044              		.cfi_offset 19, -40
 1045              		.cfi_offset 20, -48
 1046              		.cfi_offset 21, -56
 1047 0408 13040109 		addi	s0,sp,144
 1048              		.cfi_def_cfa 8, 0
 173:src/riscv.cpp ****     uint64  code,a1,a2,a3,a4;
 1049              		.loc 1 173 5
 174:src/riscv.cpp ****     __asm__ volatile("mv %0, a0" : "=r"(code));
 1050              		.loc 1 174 5
 1051              		.loc 1 174 47 is_stmt 0
 1052              	#APP
 1053              	# 174 "src/riscv.cpp" 1
GAS LISTING /tmp/cc8Nyx6Y.s 			page 32


 175              	    __asm__ volatile("mv %0, a1" : "=r"(a1));
 1054              		mv a0, a0
 1055              	# 0 "" 2
 1056              	.LVL88:
 1057              		.loc 1 175 5 is_stmt 1
 1058              		.loc 1 175 45 is_stmt 0
 1059              	# 175 "src/riscv.cpp" 1
 176              	    __asm__ volatile("mv %0, a2" : "=r"(a2));
 1060              		mv a1, a1
 1061              	# 0 "" 2
 1062              	.LVL89:
 1063              		.loc 1 176 5 is_stmt 1
 1064              		.loc 1 176 45 is_stmt 0
 1065              	# 176 "src/riscv.cpp" 1
 177              	    __asm__ volatile("mv %0, a3" : "=r"(a3));
 1066              		mv a2, a2
 1067              	# 0 "" 2
 1068              	.LVL90:
 1069              		.loc 1 177 5 is_stmt 1
 1070              		.loc 1 177 45 is_stmt 0
 1071              	# 177 "src/riscv.cpp" 1
 178              	    __asm__ volatile("mv %0, a4" : "=r"(a4));
 1072              		mv a3, a3
 1073              	# 0 "" 2
 1074              	.LVL91:
 1075              		.loc 1 178 5 is_stmt 1
 1076              		.loc 1 178 45 is_stmt 0
 1077              	# 178 "src/riscv.cpp" 1
 179              	    uint64 scause=r_scause();
 1078              		mv a4, a4
 1079              	# 0 "" 2
 1080              	.LVL92:
 1081              		.loc 1 179 5 is_stmt 1
 1082              	#NO_APP
 1083              	.LBB282:
 1084              	.LBB283:
 113:src/../h/riscv.hpp ****     __asm__ volatile ("csrr %[scause], scause" : [scause] "=r"(scause));
 1085              		.loc 2 113 5
 114:src/../h/riscv.hpp ****     return scause;
 1086              		.loc 2 114 5
 114:src/../h/riscv.hpp ****     return scause;
 1087              		.loc 2 114 72 is_stmt 0
 1088              	#APP
 1089              	# 114 "src/../h/riscv.hpp" 1
 1090              		csrr a5, scause
 1091              	# 0 "" 2
 1092              	#NO_APP
 1093 0424 233CF4F6 		sd	a5,-136(s0)
 115:src/../h/riscv.hpp **** }
 1094              		.loc 2 115 5 is_stmt 1
 115:src/../h/riscv.hpp **** }
 1095              		.loc 2 115 12 is_stmt 0
 1096 0428 033884F7 		ld	a6,-136(s0)
 1097              	.LVL93:
 1098              	.LBE283:
 1099              	.LBE282:
 180:src/riscv.cpp ****     if(scause==ECALL_S || scause==ECALL_U){
GAS LISTING /tmp/cc8Nyx6Y.s 			page 33


 1100              		.loc 1 180 5 is_stmt 1
 1101              	.LBB284:
 1102              		.loc 1 180 24 is_stmt 0
 1103 042c 930888FF 		addi	a7,a6,-8
 1104              		.loc 1 180 5
 1105 0430 93071000 		li	a5,1
 1106 0434 63FE1707 		bleu	a7,a5,.L65
 1107              	.LBE284:
 181:src/riscv.cpp ****         //ecall iz supervisor rezima (ecall u sepc stavlja tu adresu, u sepc treba
 182:src/riscv.cpp ****         //dodati 4)
 183:src/riscv.cpp ****         uint64 sepc=r_sepc();
 184:src/riscv.cpp ****         sepc+=4;
 185:src/riscv.cpp ****         w_sepc(sepc);
 186:src/riscv.cpp ****         syscall(code,a1,a2,a3,a4);
 187:src/riscv.cpp ****         //printString("Prekid iz super rezima\n");
 188:src/riscv.cpp ****     }
 189:src/riscv.cpp ****     else if(scause==SOFT){
 1108              		.loc 1 189 10 is_stmt 1
 1109              	.LBB353:
 1110              	.LBB285:
 1111 0438 9307F0FF 		li	a5,-1
 1112 043c 9397F703 		slli	a5,a5,63
 1113 0440 93871700 		addi	a5,a5,1
 1114 0444 6306F80A 		beq	a6,a5,.L66
 1115              	.LBE285:
 1116              	.LBE353:
 190:src/riscv.cpp ****         //timer
 191:src/riscv.cpp **** 
 192:src/riscv.cpp ****         TCB::timeSliceCounter++;
 193:src/riscv.cpp ****         TimeSleep::getInstance()->released();
 194:src/riscv.cpp ****         if(TCB::timeSliceCounter>=TCB::running->timeSlice)
 195:src/riscv.cpp ****         {
 196:src/riscv.cpp ****             uint64 sepc=r_sepc();
 197:src/riscv.cpp ****             TCB::running->context.sepc=sepc;
 198:src/riscv.cpp ****             uint64 sstatus=r_sstatus();
 199:src/riscv.cpp ****             TCB::running->context.sstatus=sstatus;
 200:src/riscv.cpp ****             //TCB::timeSliceCounter=0;
 201:src/riscv.cpp ****             TCB::dispatch();
 202:src/riscv.cpp ****             w_sepc(TCB::running->context.sepc);
 203:src/riscv.cpp ****             w_sstatus(TCB::running->context.sstatus);
 204:src/riscv.cpp ****         }
 205:src/riscv.cpp **** 
 206:src/riscv.cpp ****         mc_sip(SIP_SSIP);
 207:src/riscv.cpp ****     }
 208:src/riscv.cpp ****     else if(scause==HARD){
 1117              		.loc 1 208 10
 1118              	.LBB354:
 1119              	.LBB346:
 1120              	.LBB286:
 1121 0448 9307F0FF 		li	a5,-1
 1122 044c 9397F703 		slli	a5,a5,63
 1123 0450 93879700 		addi	a5,a5,9
 1124 0454 6308F812 		beq	a6,a5,.L67
 209:src/riscv.cpp ****         //prekid konzole
 210:src/riscv.cpp ****         int id=plic_claim();
 211:src/riscv.cpp ****         if(id==CONSOLE_IRQ){
 212:src/riscv.cpp ****             volatile char* stat=(char*)CONSOLE_STATUS;
GAS LISTING /tmp/cc8Nyx6Y.s 			page 34


 213:src/riscv.cpp ****             while((*stat&CONSOLE_RX_STATUS_BIT) && input->getSize()<256){
 214:src/riscv.cpp ****                 char c=(char)(*((char*)CONSOLE_RX_DATA));
 215:src/riscv.cpp ****                 input->cons_put(c);
 216:src/riscv.cpp ****                 stat=(char*)CONSOLE_STATUS;
 217:src/riscv.cpp ****             }
 218:src/riscv.cpp **** 
 219:src/riscv.cpp ****         }
 220:src/riscv.cpp ****         plic_complete(CONSOLE_IRQ);
 221:src/riscv.cpp ****     }
 222:src/riscv.cpp ****     else{
 223:src/riscv.cpp ****         unexpectedTrap();
 1125              		.loc 1 223 9
 1126              	.LBB287:
 1127              	.LBB288:
 224:src/riscv.cpp ****     }
 225:src/riscv.cpp **** 
 226:src/riscv.cpp **** }
 227:src/riscv.cpp **** 
 228:src/riscv.cpp **** void Riscv::retTosret() {
 229:src/riscv.cpp **** 
 230:src/riscv.cpp ****     __asm__ volatile ("csrw sepc,ra");
 231:src/riscv.cpp ****     __asm__ volatile ("sret");
 232:src/riscv.cpp **** }
 233:src/riscv.cpp **** void Riscv::determinePrivilege() {
 234:src/riscv.cpp ****     if(TCB::running->sys){
 235:src/riscv.cpp ****         ms_sstatus(SSTATUS_SPP);
 236:src/riscv.cpp ****     }
 237:src/riscv.cpp ****     else{
 238:src/riscv.cpp ****         mc_sstatus(SSTATUS_SPP);
 239:src/riscv.cpp ****     }
 240:src/riscv.cpp **** }
 241:src/riscv.cpp **** 
 242:src/riscv.cpp **** inline void Riscv::unexpectedTrap() {
 243:src/riscv.cpp ****     uint64 scause= r_scause();
 1128              		.loc 1 243 5
 1129              	.LBB289:
 1130              	.LBB290:
 113:src/../h/riscv.hpp ****     __asm__ volatile ("csrr %[scause], scause" : [scause] "=r"(scause));
 1131              		.loc 2 113 5
 114:src/../h/riscv.hpp ****     return scause;
 1132              		.loc 2 114 5
 114:src/../h/riscv.hpp ****     return scause;
 1133              		.loc 2 114 72 is_stmt 0
 1134              	#APP
 1135              	# 114 "src/../h/riscv.hpp" 1
 1136              		csrr a5, scause
 1137              	# 0 "" 2
 1138              	#NO_APP
 1139 045c 2338F4F8 		sd	a5,-112(s0)
 115:src/../h/riscv.hpp **** }
 1140              		.loc 2 115 5 is_stmt 1
 115:src/../h/riscv.hpp **** }
 1141              		.loc 2 115 12 is_stmt 0
 1142 0460 833404F9 		ld	s1,-112(s0)
 1143              	.LVL94:
 1144              	.LBE290:
 1145              	.LBE289:
GAS LISTING /tmp/cc8Nyx6Y.s 			page 35


 244:src/riscv.cpp ****     uint64 sepc= r_sepc();
 1146              		.loc 1 244 5 is_stmt 1
 1147              	.LBB291:
 1148              	.LBB292:
 121:src/../h/riscv.hpp ****     __asm__ volatile ("csrr %[sepc],sepc":[sepc] "=r"(sepc));
 1149              		.loc 2 121 5
 122:src/../h/riscv.hpp ****     return sepc;
 1150              		.loc 2 122 5
 122:src/../h/riscv.hpp ****     return sepc;
 1151              		.loc 2 122 61 is_stmt 0
 1152              	#APP
 1153              	# 122 "src/../h/riscv.hpp" 1
 1154              		csrr a5,sepc
 1155              	# 0 "" 2
 1156              	#NO_APP
 1157 0468 233CF4F8 		sd	a5,-104(s0)
 123:src/../h/riscv.hpp **** }
 1158              		.loc 2 123 5 is_stmt 1
 123:src/../h/riscv.hpp **** }
 1159              		.loc 2 123 12 is_stmt 0
 1160 046c 033984F9 		ld	s2,-104(s0)
 1161              	.LVL95:
 1162              	.LBE292:
 1163              	.LBE291:
 245:src/riscv.cpp ****     uint64  stval=r_stval();
 1164              		.loc 1 245 5 is_stmt 1
 1165              	.LBB293:
 1166              	.LBB294:
 137:src/../h/riscv.hpp ****     __asm__ volatile ("csrr %[stval], stval" : [stval] "=r"(stval));
 1167              		.loc 2 137 5
 138:src/../h/riscv.hpp ****     return stval;
 1168              		.loc 2 138 5
 138:src/../h/riscv.hpp ****     return stval;
 1169              		.loc 2 138 68 is_stmt 0
 1170              	#APP
 1171              	# 138 "src/../h/riscv.hpp" 1
 1172              		csrr a5, stval
 1173              	# 0 "" 2
 1174              	#NO_APP
 1175 0474 2330F4FA 		sd	a5,-96(s0)
 139:src/../h/riscv.hpp **** }
 1176              		.loc 2 139 5 is_stmt 1
 139:src/../h/riscv.hpp **** }
 1177              		.loc 2 139 12 is_stmt 0
 1178 0478 033A04FA 		ld	s4,-96(s0)
 1179              	.LVL96:
 1180              	.LBE294:
 1181              	.LBE293:
 246:src/riscv.cpp ****     uint64 stvec= r_stvec();
 1182              		.loc 1 246 5 is_stmt 1
 1183              	.LBB295:
 1184              	.LBB296:
 129:src/../h/riscv.hpp ****     __asm__ volatile ("csrr %[stvec],stvec" : [stvec] "=r"(stvec));
 1185              		.loc 2 129 5
 130:src/../h/riscv.hpp ****     return stvec;
 1186              		.loc 2 130 5
 130:src/../h/riscv.hpp ****     return stvec;
GAS LISTING /tmp/cc8Nyx6Y.s 			page 36


 1187              		.loc 2 130 67 is_stmt 0
 1188              	#APP
 1189              	# 130 "src/../h/riscv.hpp" 1
 1190              		csrr a5,stvec
 1191              	# 0 "" 2
 1192              	#NO_APP
 1193 0480 2334F4FA 		sd	a5,-88(s0)
 131:src/../h/riscv.hpp **** }
 1194              		.loc 2 131 5 is_stmt 1
 131:src/../h/riscv.hpp **** }
 1195              		.loc 2 131 12 is_stmt 0
 1196 0484 833984FA 		ld	s3,-88(s0)
 1197              	.LVL97:
 1198              	.LBE296:
 1199              	.LBE295:
 247:src/riscv.cpp ****     kernelPrint("scause: ");
 1200              		.loc 1 247 5 is_stmt 1
 1201              	.LBB298:
 1202              	.LBB297:
 131:src/../h/riscv.hpp **** }
 1203              		.loc 2 131 12 is_stmt 0
 1204 0488 970A0000 		lla	s5,.LC1
 1204      938A0A00 
 1205              	.LVL98:
 1206              	.L38:
 1207              	.LBE297:
 1208              	.LBE298:
 1209              	.LBB299:
 1210              	.LBB300:
  22:src/../h/riscv.hpp ****         {
 1211              		.loc 2 22 9 is_stmt 1
  22:src/../h/riscv.hpp ****         {
 1212              		.loc 2 22 24
  22:src/../h/riscv.hpp ****         {
 1213              		.loc 2 22 16 is_stmt 0
 1214 0490 83C50A00 		lbu	a1,0(s5)
  22:src/../h/riscv.hpp ****         {
 1215              		.loc 2 22 24
 1216 0494 63840516 		beqz	a1,.L37
  24:src/../h/riscv.hpp ****             string++;
 1217              		.loc 2 24 13 is_stmt 1
  24:src/../h/riscv.hpp ****             string++;
 1218              		.loc 2 24 29 is_stmt 0
 1219 0498 17050000 		ld	a0,.LANCHOR0+8
 1219      03350500 
 1220 04a0 97000000 		call	_ZN8_console8cons_putEc@plt
 1220      E7800000 
 1221              	.LVL99:
  25:src/../h/riscv.hpp ****         }
 1222              		.loc 2 25 13 is_stmt 1
  25:src/../h/riscv.hpp ****         }
 1223              		.loc 2 25 19 is_stmt 0
 1224 04a8 938A1A00 		addi	s5,s5,1
 1225              	.LVL100:
  22:src/../h/riscv.hpp ****         {
 1226              		.loc 2 22 9
 1227 04ac 6FF05FFE 		j	.L38
GAS LISTING /tmp/cc8Nyx6Y.s 			page 37


 1228              	.LVL101:
 1229              	.L65:
 1230              	.LBE300:
 1231              	.LBE299:
 1232              	.LBE288:
 1233              	.LBE287:
 1234              	.LBE286:
 1235              	.LBE346:
 1236              	.LBB347:
 183:src/riscv.cpp ****         sepc+=4;
 1237              		.loc 1 183 9 is_stmt 1
 1238              	.LBB348:
 1239              	.LBB349:
 121:src/../h/riscv.hpp ****     __asm__ volatile ("csrr %[sepc],sepc":[sepc] "=r"(sepc));
 1240              		.loc 2 121 5
 122:src/../h/riscv.hpp ****     return sepc;
 1241              		.loc 2 122 5
 122:src/../h/riscv.hpp ****     return sepc;
 1242              		.loc 2 122 61 is_stmt 0
 1243              	#APP
 1244              	# 122 "src/../h/riscv.hpp" 1
 1245              		csrr a5,sepc
 1246              	# 0 "" 2
 1247              	#NO_APP
 1248 04b4 2330F4F8 		sd	a5,-128(s0)
 123:src/../h/riscv.hpp **** }
 1249              		.loc 2 123 5 is_stmt 1
 123:src/../h/riscv.hpp **** }
 1250              		.loc 2 123 12 is_stmt 0
 1251 04b8 833704F8 		ld	a5,-128(s0)
 1252              	.LVL102:
 1253              	.LBE349:
 1254              	.LBE348:
 184:src/riscv.cpp ****         w_sepc(sepc);
 1255              		.loc 1 184 9 is_stmt 1
 184:src/riscv.cpp ****         w_sepc(sepc);
 1256              		.loc 1 184 13 is_stmt 0
 1257 04bc 93874700 		addi	a5,a5,4
 1258              	.LVL103:
 185:src/riscv.cpp ****         syscall(code,a1,a2,a3,a4);
 1259              		.loc 1 185 9 is_stmt 1
 1260              	.LBB350:
 1261              	.LBB351:
 126:src/../h/riscv.hpp **** }
 1262              		.loc 2 126 5
 126:src/../h/riscv.hpp **** }
 1263              		.loc 2 126 61 is_stmt 0
 1264              	#APP
 1265              	# 126 "src/../h/riscv.hpp" 1
 1266              		csrw sepc,a5
 1267              	# 0 "" 2
 1268              	.LVL104:
 1269              	#NO_APP
 1270              	.LBE351:
 1271              	.LBE350:
 186:src/riscv.cpp ****         //printString("Prekid iz super rezima\n");
 1272              		.loc 1 186 9 is_stmt 1
GAS LISTING /tmp/cc8Nyx6Y.s 			page 38


 186:src/riscv.cpp ****         //printString("Prekid iz super rezima\n");
 1273              		.loc 1 186 16 is_stmt 0
 1274 04c4 97000000 		call	_ZN5Riscv7syscallEmmmmm
 1274      E7800000 
 1275              	.LVL105:
 1276              	.L29:
 1277              	.LBE347:
 1278              	.LBE354:
 226:src/riscv.cpp **** 
 1279              		.loc 1 226 1
 1280 04cc 83308108 		ld	ra,136(sp)
 1281              		.cfi_remember_state
 1282              		.cfi_restore 1
 1283 04d0 03340108 		ld	s0,128(sp)
 1284              		.cfi_restore 8
 1285              		.cfi_def_cfa 2, 144
 1286 04d4 83348107 		ld	s1,120(sp)
 1287              		.cfi_restore 9
 1288 04d8 03390107 		ld	s2,112(sp)
 1289              		.cfi_restore 18
 1290 04dc 83398106 		ld	s3,104(sp)
 1291              		.cfi_restore 19
 1292 04e0 033A0106 		ld	s4,96(sp)
 1293              		.cfi_restore 20
 1294 04e4 833A8105 		ld	s5,88(sp)
 1295              		.cfi_restore 21
 1296 04e8 13010109 		addi	sp,sp,144
 1297              		.cfi_def_cfa_offset 0
 1298 04ec 67800000 		jr	ra
 1299              	.LVL106:
 1300              	.L66:
 1301              		.cfi_restore_state
 1302              	.LBB355:
 1303              	.LBB352:
 1304              	.LBB331:
 192:src/riscv.cpp ****         TimeSleep::getInstance()->released();
 1305              		.loc 1 192 9 is_stmt 1
 192:src/riscv.cpp ****         TimeSleep::getInstance()->released();
 1306              		.loc 1 192 30 is_stmt 0
 1307 04f0 97040000 		la	s1,_ZN3TCB16timeSliceCounterE
 1307      83B40400 
 1308 04f8 83B70400 		ld	a5,0(s1)
 1309 04fc 93871700 		addi	a5,a5,1
 1310 0500 23B0F400 		sd	a5,0(s1)
 193:src/riscv.cpp ****         if(TCB::timeSliceCounter>=TCB::running->timeSlice)
 1311              		.loc 1 193 9 is_stmt 1
 193:src/riscv.cpp ****         if(TCB::timeSliceCounter>=TCB::running->timeSlice)
 1312              		.loc 1 193 43 is_stmt 0
 1313 0504 97000000 		call	_ZN9TimeSleep11getInstanceEv@plt
 1313      E7800000 
 1314              	.LVL107:
 1315 050c 97000000 		call	_ZN9TimeSleep8releasedEv@plt
 1315      E7800000 
 1316              	.LVL108:
 194:src/riscv.cpp ****         {
 1317              		.loc 1 194 9 is_stmt 1
 1318              	.LBB332:
GAS LISTING /tmp/cc8Nyx6Y.s 			page 39


 194:src/riscv.cpp ****         {
 1319              		.loc 1 194 49 is_stmt 0
 1320 0514 97070000 		la	a5,_ZN3TCB7runningE
 1320      83B70700 
 1321 051c 83B70700 		ld	a5,0(a5)
 1322 0520 03B78714 		ld	a4,328(a5)
 194:src/riscv.cpp ****         {
 1323              		.loc 1 194 33
 1324 0524 83B70400 		ld	a5,0(s1)
 194:src/riscv.cpp ****         {
 1325              		.loc 1 194 9
 1326 0528 63F8E700 		bleu	a4,a5,.L68
 1327              	.L33:
 1328              	.LBE332:
 206:src/riscv.cpp ****     }
 1329              		.loc 1 206 9 is_stmt 1
 1330              	.LVL109:
 1331              	.LBB342:
 1332              	.LBB343:
 148:src/../h/riscv.hpp **** }
 1333              		.loc 2 148 5
 148:src/../h/riscv.hpp **** }
 1334              		.loc 2 148 63 is_stmt 0
 1335 052c 93072000 		li	a5,2
 1336              	#APP
 1337              	# 148 "src/../h/riscv.hpp" 1
 149:src/../h/riscv.hpp **** inline uint64 Riscv::r_sip() {
 1338              		csrc sip,a5
 1339              	# 0 "" 2
 1340              		.loc 2 149 1
 1341              	#NO_APP
 1342 0534 6FF09FF9 		j	.L29
 1343              	.LVL110:
 1344              	.L68:
 1345              	.LBE343:
 1346              	.LBE342:
 1347              	.LBB344:
 1348              	.LBB333:
 196:src/riscv.cpp ****             TCB::running->context.sepc=sepc;
 1349              		.loc 1 196 13 is_stmt 1
 1350              	.LBB334:
 1351              	.LBB335:
 121:src/../h/riscv.hpp ****     __asm__ volatile ("csrr %[sepc],sepc":[sepc] "=r"(sepc));
 1352              		.loc 2 121 5
 122:src/../h/riscv.hpp ****     return sepc;
 1353              		.loc 2 122 5
 122:src/../h/riscv.hpp ****     return sepc;
 1354              		.loc 2 122 61 is_stmt 0
 1355              	#APP
 1356              	# 122 "src/../h/riscv.hpp" 1
 1357              		csrr a5,sepc
 1358              	# 0 "" 2
 1359              	#NO_APP
 1360 053c 2338F4FA 		sd	a5,-80(s0)
 123:src/../h/riscv.hpp **** }
 1361              		.loc 2 123 5 is_stmt 1
 123:src/../h/riscv.hpp **** }
GAS LISTING /tmp/cc8Nyx6Y.s 			page 40


 1362              		.loc 2 123 12 is_stmt 0
 1363 0540 033704FB 		ld	a4,-80(s0)
 1364              	.LVL111:
 1365              	.LBE335:
 1366              	.LBE334:
 197:src/riscv.cpp ****             uint64 sstatus=r_sstatus();
 1367              		.loc 1 197 13 is_stmt 1
 197:src/riscv.cpp ****             uint64 sstatus=r_sstatus();
 1368              		.loc 1 197 35 is_stmt 0
 1369 0544 97040000 		la	s1,_ZN3TCB7runningE
 1369      83B40400 
 1370 054c 83B70400 		ld	a5,0(s1)
 197:src/riscv.cpp ****             uint64 sstatus=r_sstatus();
 1371              		.loc 1 197 39
 1372 0550 23B4E710 		sd	a4,264(a5)
 198:src/riscv.cpp ****             TCB::running->context.sstatus=sstatus;
 1373              		.loc 1 198 13 is_stmt 1
 1374              	.LBB336:
 1375              	.LBB337:
 165:src/../h/riscv.hpp ****     __asm__ volatile("csrr %[sstatus],sstatus" : [sstatus] "=r"(sstatus));
 1376              		.loc 2 165 5
 166:src/../h/riscv.hpp ****     return sstatus;
 1377              		.loc 2 166 5
 166:src/../h/riscv.hpp ****     return sstatus;
 1378              		.loc 2 166 74 is_stmt 0
 1379              	#APP
 1380              	# 166 "src/../h/riscv.hpp" 1
 1381              		csrr a4,sstatus
 1382              	# 0 "" 2
 1383              	.LVL112:
 1384              	#NO_APP
 1385 0558 2334E4F8 		sd	a4,-120(s0)
 167:src/../h/riscv.hpp **** }
 1386              		.loc 2 167 5 is_stmt 1
 167:src/../h/riscv.hpp **** }
 1387              		.loc 2 167 12 is_stmt 0
 1388 055c 033784F8 		ld	a4,-120(s0)
 1389              	.LVL113:
 1390              	.LBE337:
 1391              	.LBE336:
 199:src/riscv.cpp ****             //TCB::timeSliceCounter=0;
 1392              		.loc 1 199 13 is_stmt 1
 199:src/riscv.cpp ****             //TCB::timeSliceCounter=0;
 1393              		.loc 1 199 42 is_stmt 0
 1394 0560 23B8E710 		sd	a4,272(a5)
 201:src/riscv.cpp ****             w_sepc(TCB::running->context.sepc);
 1395              		.loc 1 201 13 is_stmt 1
 201:src/riscv.cpp ****             w_sepc(TCB::running->context.sepc);
 1396              		.loc 1 201 26 is_stmt 0
 1397 0564 97000000 		call	_ZN3TCB8dispatchEv@plt
 1397      E7800000 
 1398              	.LVL114:
 202:src/riscv.cpp ****             w_sstatus(TCB::running->context.sstatus);
 1399              		.loc 1 202 13 is_stmt 1
 202:src/riscv.cpp ****             w_sstatus(TCB::running->context.sstatus);
 1400              		.loc 1 202 19 is_stmt 0
 1401 056c 83B70400 		ld	a5,0(s1)
GAS LISTING /tmp/cc8Nyx6Y.s 			page 41


 1402 0570 03B78710 		ld	a4,264(a5)
 1403              	.LVL115:
 1404              	.LBB338:
 1405              	.LBB339:
 126:src/../h/riscv.hpp **** }
 1406              		.loc 2 126 5 is_stmt 1
 126:src/../h/riscv.hpp **** }
 1407              		.loc 2 126 61 is_stmt 0
 1408              	#APP
 1409              	# 126 "src/../h/riscv.hpp" 1
 1410              		csrw sepc,a4
 1411              	# 0 "" 2
 1412              	.LVL116:
 1413              	#NO_APP
 1414              	.LBE339:
 1415              	.LBE338:
 203:src/riscv.cpp ****         }
 1416              		.loc 1 203 13 is_stmt 1
 203:src/riscv.cpp ****         }
 1417              		.loc 1 203 22 is_stmt 0
 1418 0578 83B70711 		ld	a5,272(a5)
 1419              	.LVL117:
 1420              	.LBB340:
 1421              	.LBB341:
 170:src/../h/riscv.hpp **** }
 1422              		.loc 2 170 5 is_stmt 1
 170:src/../h/riscv.hpp **** }
 1423              		.loc 2 170 75 is_stmt 0
 1424              	#APP
 1425              	# 170 "src/../h/riscv.hpp" 1
 1426              		csrw sstatus,a5
 1427              	# 0 "" 2
 1428              		.loc 2 171 1
 1429              	#NO_APP
 1430 0580 6FF0DFFA 		j	.L33
 1431              	.LVL118:
 1432              	.L67:
 1433              	.LBE341:
 1434              	.LBE340:
 1435              	.LBE333:
 1436              	.LBE344:
 1437              	.LBE331:
 1438              	.LBB345:
 1439              	.LBB324:
 210:src/riscv.cpp ****         if(id==CONSOLE_IRQ){
 1440              		.loc 1 210 9 is_stmt 1
 210:src/riscv.cpp ****         if(id==CONSOLE_IRQ){
 1441              		.loc 1 210 26 is_stmt 0
 1442 0584 97000000 		call	plic_claim@plt
 1442      E7800000 
 1443              	.LVL119:
 211:src/riscv.cpp ****             volatile char* stat=(char*)CONSOLE_STATUS;
 1444              		.loc 1 211 9 is_stmt 1
 1445              	.LBB325:
 1446 058c 9307A000 		li	a5,10
 1447 0590 630AF500 		beq	a0,a5,.L69
 1448              	.LVL120:
GAS LISTING /tmp/cc8Nyx6Y.s 			page 42


 1449              	.L35:
 1450              	.LBE325:
 220:src/riscv.cpp ****     }
 1451              		.loc 1 220 9
 220:src/riscv.cpp ****     }
 1452              		.loc 1 220 22 is_stmt 0
 1453 0594 1305A000 		li	a0,10
 1454 0598 97000000 		call	plic_complete@plt
 1454      E7800000 
 1455              	.LVL121:
 1456              	.LBE324:
 1457 05a0 6FF0DFF2 		j	.L29
 1458              	.LVL122:
 1459              	.L69:
 1460              	.LBB329:
 1461              	.LBB328:
 1462              	.LBB326:
 212:src/riscv.cpp ****             while((*stat&CONSOLE_RX_STATUS_BIT) && input->getSize()<256){
 1463              		.loc 1 212 13 is_stmt 1
 212:src/riscv.cpp ****             while((*stat&CONSOLE_RX_STATUS_BIT) && input->getSize()<256){
 1464              		.loc 1 212 33 is_stmt 0
 1465 05a4 97070000 		la	a5,CONSOLE_STATUS
 1465      83B70700 
 1466 05ac 83B40700 		ld	s1,0(a5)
 1467              	.LVL123:
 1468 05b0 6F004002 		j	.L36
 1469              	.LVL124:
 1470              	.L70:
 1471              	.LBB327:
 214:src/riscv.cpp ****                 input->cons_put(c);
 1472              		.loc 1 214 17 is_stmt 1
 214:src/riscv.cpp ****                 input->cons_put(c);
 1473              		.loc 1 214 31 is_stmt 0
 1474 05b4 97070000 		la	a5,CONSOLE_RX_DATA
 1474      83B70700 
 1475 05bc 83B70700 		ld	a5,0(a5)
 1476              	.LVL125:
 215:src/riscv.cpp ****                 stat=(char*)CONSOLE_STATUS;
 1477              		.loc 1 215 17 is_stmt 1
 215:src/riscv.cpp ****                 stat=(char*)CONSOLE_STATUS;
 1478              		.loc 1 215 32 is_stmt 0
 1479 05c0 83C50700 		lbu	a1,0(a5)
 1480 05c4 17050000 		ld	a0,.LANCHOR0
 1480      03350500 
 1481 05cc 97000000 		call	_ZN8_console8cons_putEc@plt
 1481      E7800000 
 1482              	.LVL126:
 216:src/riscv.cpp ****             }
 1483              		.loc 1 216 17 is_stmt 1
 1484              	.L36:
 1485              	.LBE327:
 213:src/riscv.cpp ****                 char c=(char)(*((char*)CONSOLE_RX_DATA));
 1486              		.loc 1 213 13
 213:src/riscv.cpp ****                 char c=(char)(*((char*)CONSOLE_RX_DATA));
 1487              		.loc 1 213 49
 213:src/riscv.cpp ****                 char c=(char)(*((char*)CONSOLE_RX_DATA));
 1488              		.loc 1 213 20 is_stmt 0
GAS LISTING /tmp/cc8Nyx6Y.s 			page 43


 1489 05d4 83C70400 		lbu	a5,0(s1)
 213:src/riscv.cpp ****                 char c=(char)(*((char*)CONSOLE_RX_DATA));
 1490              		.loc 1 213 49
 1491 05d8 93F71700 		andi	a5,a5,1
 1492 05dc E38C07FA 		beqz	a5,.L35
 213:src/riscv.cpp ****                 char c=(char)(*((char*)CONSOLE_RX_DATA));
 1493              		.loc 1 213 66 discriminator 1
 1494 05e0 17050000 		ld	a0,.LANCHOR0
 1494      03350500 
 1495 05e8 97000000 		call	_ZNK8_console7getSizeEv@plt
 1495      E7800000 
 1496              	.LVL127:
 213:src/riscv.cpp ****                 char c=(char)(*((char*)CONSOLE_RX_DATA));
 1497              		.loc 1 213 49 discriminator 1
 1498 05f0 9307F00F 		li	a5,255
 1499 05f4 E3D0A7FC 		ble	a0,a5,.L70
 1500 05f8 6FF0DFF9 		j	.L35
 1501              	.LVL128:
 1502              	.L37:
 1503              	.LBE326:
 1504              	.LBE328:
 1505              	.LBE329:
 1506              	.LBB330:
 1507              	.LBB323:
 248:src/riscv.cpp ****     kernelPrintInt(scause,16);
 1508              		.loc 1 248 5 is_stmt 1
 1509              	.LBB301:
 1510              	.LBB302:
  30:src/../h/riscv.hpp ****         int i, neg;
 1511              		.loc 2 30 9
  31:src/../h/riscv.hpp ****         uint x;
 1512              		.loc 2 31 9
  32:src/../h/riscv.hpp **** 
 1513              		.loc 2 32 9
  34:src/../h/riscv.hpp ****         if(sgn && xx < 0){
 1514              		.loc 2 34 9
  35:src/../h/riscv.hpp ****             neg = 1;
 1515              		.loc 2 35 9
  39:src/../h/riscv.hpp ****         }
 1516              		.loc 2 39 13
  39:src/../h/riscv.hpp ****         }
 1517              		.loc 2 39 15 is_stmt 0
 1518 05fc 1B870400 		sext.w	a4,s1
 1519              	.LVL129:
  42:src/../h/riscv.hpp ****         do{
 1520              		.loc 2 42 9 is_stmt 1
  42:src/../h/riscv.hpp ****         do{
 1521              		.loc 2 42 11 is_stmt 0
 1522 0600 93040000 		li	s1,0
 1523              	.LVL130:
 1524              	.L39:
  43:src/../h/riscv.hpp ****             buf[i++] = digits[x % base];
 1525              		.loc 2 43 9 is_stmt 1
  44:src/../h/riscv.hpp ****         }while((x /= base) != 0);
 1526              		.loc 2 44 13
  44:src/../h/riscv.hpp ****         }while((x /= base) != 0);
 1527              		.loc 2 44 39 is_stmt 0
GAS LISTING /tmp/cc8Nyx6Y.s 			page 44


 1528 0604 1376F700 		andi	a2,a4,15
 1529 0608 97060000 		lla	a3,.LANCHOR1
 1529      93860600 
 1530 0610 B386C600 		add	a3,a3,a2
 1531 0614 83C60600 		lbu	a3,0(a3)
  44:src/../h/riscv.hpp ****         }while((x /= base) != 0);
 1532              		.loc 2 44 22
 1533 0618 130604FC 		addi	a2,s0,-64
 1534 061c B3079600 		add	a5,a2,s1
 1535 0620 9B841400 		addiw	s1,s1,1
 1536              	.LVL131:
 1537 0624 2388D7FE 		sb	a3,-16(a5)
  45:src/../h/riscv.hpp ****         if(neg)
 1538              		.loc 2 45 28 is_stmt 1
 1539 0628 9B060700 		sext.w	a3,a4
  45:src/../h/riscv.hpp ****         if(neg)
 1540              		.loc 2 45 19 is_stmt 0
 1541 062c 1B574700 		srliw	a4,a4,4
 1542              	.LVL132:
  45:src/../h/riscv.hpp ****         if(neg)
 1543              		.loc 2 45 28
 1544 0630 9307F000 		li	a5,15
 1545 0634 E3E8D7FC 		bgtu	a3,a5,.L39
 1546              	.LVL133:
 1547              	.L41:
  49:src/../h/riscv.hpp ****             output->cons_put(buf[i]);
 1548              		.loc 2 49 9 is_stmt 1
  49:src/../h/riscv.hpp ****             output->cons_put(buf[i]);
 1549              		.loc 2 49 19
 1550 0638 9B84F4FF 		addiw	s1,s1,-1
 1551              	.LVL134:
 1552 063c 63C20402 		bltz	s1,.L40
  50:src/../h/riscv.hpp **** 
 1553              		.loc 2 50 13
  50:src/../h/riscv.hpp **** 
 1554              		.loc 2 50 29 is_stmt 0
 1555 0640 930704FC 		addi	a5,s0,-64
 1556 0644 B3879700 		add	a5,a5,s1
 1557 0648 83C507FF 		lbu	a1,-16(a5)
 1558 064c 17050000 		ld	a0,.LANCHOR0+8
 1558      03350500 
 1559 0654 97000000 		call	_ZN8_console8cons_putEc@plt
 1559      E7800000 
 1560              	.LVL135:
 1561 065c 6FF0DFFD 		j	.L41
 1562              	.L40:
  52:src/../h/riscv.hpp **** 
 1563              		.loc 2 52 5
 1564 0660 97040000 		lla	s1,.LC2
 1564      93840400 
 1565              	.LVL136:
 1566              	.L43:
 1567              	.LBE302:
 1568              	.LBE301:
 1569              	.LBB303:
 1570              	.LBB304:
  22:src/../h/riscv.hpp ****         {
GAS LISTING /tmp/cc8Nyx6Y.s 			page 45


 1571              		.loc 2 22 9 is_stmt 1
  22:src/../h/riscv.hpp ****         {
 1572              		.loc 2 22 24
  22:src/../h/riscv.hpp ****         {
 1573              		.loc 2 22 16 is_stmt 0
 1574 0668 83C50400 		lbu	a1,0(s1)
  22:src/../h/riscv.hpp ****         {
 1575              		.loc 2 22 24
 1576 066c 638E0500 		beqz	a1,.L61
  24:src/../h/riscv.hpp ****             string++;
 1577              		.loc 2 24 13 is_stmt 1
  24:src/../h/riscv.hpp ****             string++;
 1578              		.loc 2 24 29 is_stmt 0
 1579 0670 17050000 		ld	a0,.LANCHOR0+8
 1579      03350500 
 1580 0678 97000000 		call	_ZN8_console8cons_putEc@plt
 1580      E7800000 
 1581              	.LVL137:
  25:src/../h/riscv.hpp ****         }
 1582              		.loc 2 25 13 is_stmt 1
  25:src/../h/riscv.hpp ****         }
 1583              		.loc 2 25 19 is_stmt 0
 1584 0680 93841400 		addi	s1,s1,1
 1585              	.LVL138:
  22:src/../h/riscv.hpp ****         {
 1586              		.loc 2 22 9
 1587 0684 6FF05FFE 		j	.L43
 1588              	.L61:
 1589 0688 97040000 		lla	s1,.LC3
 1589      93840400 
 1590              	.LVL139:
 1591              	.L42:
 1592              	.LBE304:
 1593              	.LBE303:
 1594              	.LBB305:
 1595              	.LBB306:
  22:src/../h/riscv.hpp ****         {
 1596              		.loc 2 22 9 is_stmt 1
  22:src/../h/riscv.hpp ****         {
 1597              		.loc 2 22 24
  22:src/../h/riscv.hpp ****         {
 1598              		.loc 2 22 16 is_stmt 0
 1599 0690 83C50400 		lbu	a1,0(s1)
  22:src/../h/riscv.hpp ****         {
 1600              		.loc 2 22 24
 1601 0694 638E0500 		beqz	a1,.L44
  24:src/../h/riscv.hpp ****             string++;
 1602              		.loc 2 24 13 is_stmt 1
  24:src/../h/riscv.hpp ****             string++;
 1603              		.loc 2 24 29 is_stmt 0
 1604 0698 17050000 		ld	a0,.LANCHOR0+8
 1604      03350500 
 1605 06a0 97000000 		call	_ZN8_console8cons_putEc@plt
 1605      E7800000 
 1606              	.LVL140:
  25:src/../h/riscv.hpp ****         }
 1607              		.loc 2 25 13 is_stmt 1
GAS LISTING /tmp/cc8Nyx6Y.s 			page 46


  25:src/../h/riscv.hpp ****         }
 1608              		.loc 2 25 19 is_stmt 0
 1609 06a8 93841400 		addi	s1,s1,1
 1610              	.LVL141:
  22:src/../h/riscv.hpp ****         {
 1611              		.loc 2 22 9
 1612 06ac 6FF05FFE 		j	.L42
 1613              	.L44:
 1614              	.LVL142:
 1615              	.LBE306:
 1616              	.LBE305:
 249:src/riscv.cpp ****     kernelPrint("\n");
 250:src/riscv.cpp ****     kernelPrint("stval: ");
 251:src/riscv.cpp ****     kernelPrintInt(stval,16);
 1617              		.loc 1 251 5 is_stmt 1
 1618              	.LBB307:
 1619              	.LBB308:
  30:src/../h/riscv.hpp ****         int i, neg;
 1620              		.loc 2 30 9
  31:src/../h/riscv.hpp ****         uint x;
 1621              		.loc 2 31 9
  32:src/../h/riscv.hpp **** 
 1622              		.loc 2 32 9
  34:src/../h/riscv.hpp ****         if(sgn && xx < 0){
 1623              		.loc 2 34 9
  35:src/../h/riscv.hpp ****             neg = 1;
 1624              		.loc 2 35 9
  39:src/../h/riscv.hpp ****         }
 1625              		.loc 2 39 13
  39:src/../h/riscv.hpp ****         }
 1626              		.loc 2 39 15 is_stmt 0
 1627 06b0 1B070A00 		sext.w	a4,s4
 1628              	.LVL143:
  42:src/../h/riscv.hpp ****         do{
 1629              		.loc 2 42 9 is_stmt 1
  42:src/../h/riscv.hpp ****         do{
 1630              		.loc 2 42 11 is_stmt 0
 1631 06b4 93040000 		li	s1,0
 1632              	.LVL144:
 1633              	.L45:
  43:src/../h/riscv.hpp ****             buf[i++] = digits[x % base];
 1634              		.loc 2 43 9 is_stmt 1
  44:src/../h/riscv.hpp ****         }while((x /= base) != 0);
 1635              		.loc 2 44 13
  44:src/../h/riscv.hpp ****         }while((x /= base) != 0);
 1636              		.loc 2 44 39 is_stmt 0
 1637 06b8 1376F700 		andi	a2,a4,15
 1638 06bc 97060000 		lla	a3,.LANCHOR1
 1638      93860600 
 1639 06c4 B386C600 		add	a3,a3,a2
 1640 06c8 83C60600 		lbu	a3,0(a3)
  44:src/../h/riscv.hpp ****         }while((x /= base) != 0);
 1641              		.loc 2 44 22
 1642 06cc 130604FC 		addi	a2,s0,-64
 1643 06d0 B3079600 		add	a5,a2,s1
 1644 06d4 9B841400 		addiw	s1,s1,1
 1645              	.LVL145:
GAS LISTING /tmp/cc8Nyx6Y.s 			page 47


 1646 06d8 2388D7FE 		sb	a3,-16(a5)
  45:src/../h/riscv.hpp ****         if(neg)
 1647              		.loc 2 45 28 is_stmt 1
 1648 06dc 9B060700 		sext.w	a3,a4
  45:src/../h/riscv.hpp ****         if(neg)
 1649              		.loc 2 45 19 is_stmt 0
 1650 06e0 1B574700 		srliw	a4,a4,4
 1651              	.LVL146:
  45:src/../h/riscv.hpp ****         if(neg)
 1652              		.loc 2 45 28
 1653 06e4 9307F000 		li	a5,15
 1654 06e8 E3E8D7FC 		bgtu	a3,a5,.L45
 1655              	.LVL147:
 1656              	.L47:
  49:src/../h/riscv.hpp ****             output->cons_put(buf[i]);
 1657              		.loc 2 49 9 is_stmt 1
  49:src/../h/riscv.hpp ****             output->cons_put(buf[i]);
 1658              		.loc 2 49 19
 1659 06ec 9B84F4FF 		addiw	s1,s1,-1
 1660              	.LVL148:
 1661 06f0 63C20402 		bltz	s1,.L46
  50:src/../h/riscv.hpp **** 
 1662              		.loc 2 50 13
  50:src/../h/riscv.hpp **** 
 1663              		.loc 2 50 29 is_stmt 0
 1664 06f4 930704FC 		addi	a5,s0,-64
 1665 06f8 B3879700 		add	a5,a5,s1
 1666 06fc 83C507FF 		lbu	a1,-16(a5)
 1667 0700 17050000 		ld	a0,.LANCHOR0+8
 1667      03350500 
 1668 0708 97000000 		call	_ZN8_console8cons_putEc@plt
 1668      E7800000 
 1669              	.LVL149:
 1670 0710 6FF0DFFD 		j	.L47
 1671              	.L46:
  52:src/../h/riscv.hpp **** 
 1672              		.loc 2 52 5
 1673 0714 97040000 		lla	s1,.LC2
 1673      93840400 
 1674              	.LVL150:
 1675              	.L49:
 1676              	.LBE308:
 1677              	.LBE307:
 1678              	.LBB309:
 1679              	.LBB310:
  22:src/../h/riscv.hpp ****         {
 1680              		.loc 2 22 9 is_stmt 1
  22:src/../h/riscv.hpp ****         {
 1681              		.loc 2 22 24
  22:src/../h/riscv.hpp ****         {
 1682              		.loc 2 22 16 is_stmt 0
 1683 071c 83C50400 		lbu	a1,0(s1)
  22:src/../h/riscv.hpp ****         {
 1684              		.loc 2 22 24
 1685 0720 638E0500 		beqz	a1,.L62
  24:src/../h/riscv.hpp ****             string++;
 1686              		.loc 2 24 13 is_stmt 1
GAS LISTING /tmp/cc8Nyx6Y.s 			page 48


  24:src/../h/riscv.hpp ****             string++;
 1687              		.loc 2 24 29 is_stmt 0
 1688 0724 17050000 		ld	a0,.LANCHOR0+8
 1688      03350500 
 1689 072c 97000000 		call	_ZN8_console8cons_putEc@plt
 1689      E7800000 
 1690              	.LVL151:
  25:src/../h/riscv.hpp ****         }
 1691              		.loc 2 25 13 is_stmt 1
  25:src/../h/riscv.hpp ****         }
 1692              		.loc 2 25 19 is_stmt 0
 1693 0734 93841400 		addi	s1,s1,1
 1694              	.LVL152:
  22:src/../h/riscv.hpp ****         {
 1695              		.loc 2 22 9
 1696 0738 6FF05FFE 		j	.L49
 1697              	.L62:
 1698 073c 97040000 		lla	s1,.LC4
 1698      93840400 
 1699              	.LVL153:
 1700              	.L48:
 1701              	.LBE310:
 1702              	.LBE309:
 1703              	.LBB311:
 1704              	.LBB312:
  22:src/../h/riscv.hpp ****         {
 1705              		.loc 2 22 9 is_stmt 1
  22:src/../h/riscv.hpp ****         {
 1706              		.loc 2 22 24
  22:src/../h/riscv.hpp ****         {
 1707              		.loc 2 22 16 is_stmt 0
 1708 0744 83C50400 		lbu	a1,0(s1)
  22:src/../h/riscv.hpp ****         {
 1709              		.loc 2 22 24
 1710 0748 638E0500 		beqz	a1,.L50
  24:src/../h/riscv.hpp ****             string++;
 1711              		.loc 2 24 13 is_stmt 1
  24:src/../h/riscv.hpp ****             string++;
 1712              		.loc 2 24 29 is_stmt 0
 1713 074c 17050000 		ld	a0,.LANCHOR0+8
 1713      03350500 
 1714 0754 97000000 		call	_ZN8_console8cons_putEc@plt
 1714      E7800000 
 1715              	.LVL154:
  25:src/../h/riscv.hpp ****         }
 1716              		.loc 2 25 13 is_stmt 1
  25:src/../h/riscv.hpp ****         }
 1717              		.loc 2 25 19 is_stmt 0
 1718 075c 93841400 		addi	s1,s1,1
 1719              	.LVL155:
  22:src/../h/riscv.hpp ****         {
 1720              		.loc 2 22 9
 1721 0760 6FF05FFE 		j	.L48
 1722              	.L50:
 1723              	.LVL156:
 1724              	.LBE312:
 1725              	.LBE311:
GAS LISTING /tmp/cc8Nyx6Y.s 			page 49


 252:src/riscv.cpp ****     kernelPrint("\n");
 253:src/riscv.cpp ****     kernelPrint("stvec: ");
 254:src/riscv.cpp ****     kernelPrintInt(stvec,16);
 1726              		.loc 1 254 5 is_stmt 1
 1727              	.LBB313:
 1728              	.LBB314:
  30:src/../h/riscv.hpp ****         int i, neg;
 1729              		.loc 2 30 9
  31:src/../h/riscv.hpp ****         uint x;
 1730              		.loc 2 31 9
  32:src/../h/riscv.hpp **** 
 1731              		.loc 2 32 9
  34:src/../h/riscv.hpp ****         if(sgn && xx < 0){
 1732              		.loc 2 34 9
  35:src/../h/riscv.hpp ****             neg = 1;
 1733              		.loc 2 35 9
  39:src/../h/riscv.hpp ****         }
 1734              		.loc 2 39 13
  39:src/../h/riscv.hpp ****         }
 1735              		.loc 2 39 15 is_stmt 0
 1736 0764 1B870900 		sext.w	a4,s3
 1737              	.LVL157:
  42:src/../h/riscv.hpp ****         do{
 1738              		.loc 2 42 9 is_stmt 1
  42:src/../h/riscv.hpp ****         do{
 1739              		.loc 2 42 11 is_stmt 0
 1740 0768 93040000 		li	s1,0
 1741              	.LVL158:
 1742              	.L51:
  43:src/../h/riscv.hpp ****             buf[i++] = digits[x % base];
 1743              		.loc 2 43 9 is_stmt 1
  44:src/../h/riscv.hpp ****         }while((x /= base) != 0);
 1744              		.loc 2 44 13
  44:src/../h/riscv.hpp ****         }while((x /= base) != 0);
 1745              		.loc 2 44 39 is_stmt 0
 1746 076c 1376F700 		andi	a2,a4,15
 1747 0770 97060000 		lla	a3,.LANCHOR1
 1747      93860600 
 1748 0778 B386C600 		add	a3,a3,a2
 1749 077c 83C60600 		lbu	a3,0(a3)
  44:src/../h/riscv.hpp ****         }while((x /= base) != 0);
 1750              		.loc 2 44 22
 1751 0780 130604FC 		addi	a2,s0,-64
 1752 0784 B3079600 		add	a5,a2,s1
 1753 0788 9B841400 		addiw	s1,s1,1
 1754              	.LVL159:
 1755 078c 2388D7FE 		sb	a3,-16(a5)
  45:src/../h/riscv.hpp ****         if(neg)
 1756              		.loc 2 45 28 is_stmt 1
 1757 0790 9B060700 		sext.w	a3,a4
  45:src/../h/riscv.hpp ****         if(neg)
 1758              		.loc 2 45 19 is_stmt 0
 1759 0794 1B574700 		srliw	a4,a4,4
 1760              	.LVL160:
  45:src/../h/riscv.hpp ****         if(neg)
 1761              		.loc 2 45 28
 1762 0798 9307F000 		li	a5,15
GAS LISTING /tmp/cc8Nyx6Y.s 			page 50


 1763 079c E3E8D7FC 		bgtu	a3,a5,.L51
 1764              	.LVL161:
 1765              	.L53:
  49:src/../h/riscv.hpp ****             output->cons_put(buf[i]);
 1766              		.loc 2 49 9 is_stmt 1
  49:src/../h/riscv.hpp ****             output->cons_put(buf[i]);
 1767              		.loc 2 49 19
 1768 07a0 9B84F4FF 		addiw	s1,s1,-1
 1769              	.LVL162:
 1770 07a4 63C20402 		bltz	s1,.L52
  50:src/../h/riscv.hpp **** 
 1771              		.loc 2 50 13
  50:src/../h/riscv.hpp **** 
 1772              		.loc 2 50 29 is_stmt 0
 1773 07a8 930704FC 		addi	a5,s0,-64
 1774 07ac B3879700 		add	a5,a5,s1
 1775 07b0 83C507FF 		lbu	a1,-16(a5)
 1776 07b4 17050000 		ld	a0,.LANCHOR0+8
 1776      03350500 
 1777 07bc 97000000 		call	_ZN8_console8cons_putEc@plt
 1777      E7800000 
 1778              	.LVL163:
 1779 07c4 6FF0DFFD 		j	.L53
 1780              	.L52:
  52:src/../h/riscv.hpp **** 
 1781              		.loc 2 52 5
 1782 07c8 97040000 		lla	s1,.LC2
 1782      93840400 
 1783              	.LVL164:
 1784              	.L55:
 1785              	.LBE314:
 1786              	.LBE313:
 1787              	.LBB315:
 1788              	.LBB316:
  22:src/../h/riscv.hpp ****         {
 1789              		.loc 2 22 9 is_stmt 1
  22:src/../h/riscv.hpp ****         {
 1790              		.loc 2 22 24
  22:src/../h/riscv.hpp ****         {
 1791              		.loc 2 22 16 is_stmt 0
 1792 07d0 83C50400 		lbu	a1,0(s1)
  22:src/../h/riscv.hpp ****         {
 1793              		.loc 2 22 24
 1794 07d4 638E0500 		beqz	a1,.L63
  24:src/../h/riscv.hpp ****             string++;
 1795              		.loc 2 24 13 is_stmt 1
  24:src/../h/riscv.hpp ****             string++;
 1796              		.loc 2 24 29 is_stmt 0
 1797 07d8 17050000 		ld	a0,.LANCHOR0+8
 1797      03350500 
 1798 07e0 97000000 		call	_ZN8_console8cons_putEc@plt
 1798      E7800000 
 1799              	.LVL165:
  25:src/../h/riscv.hpp ****         }
 1800              		.loc 2 25 13 is_stmt 1
  25:src/../h/riscv.hpp ****         }
 1801              		.loc 2 25 19 is_stmt 0
GAS LISTING /tmp/cc8Nyx6Y.s 			page 51


 1802 07e8 93841400 		addi	s1,s1,1
 1803              	.LVL166:
  22:src/../h/riscv.hpp ****         {
 1804              		.loc 2 22 9
 1805 07ec 6FF05FFE 		j	.L55
 1806              	.L63:
 1807 07f0 97040000 		lla	s1,.LC5
 1807      93840400 
 1808              	.LVL167:
 1809              	.L54:
 1810              	.LBE316:
 1811              	.LBE315:
 1812              	.LBB317:
 1813              	.LBB318:
  22:src/../h/riscv.hpp ****         {
 1814              		.loc 2 22 9 is_stmt 1
  22:src/../h/riscv.hpp ****         {
 1815              		.loc 2 22 24
  22:src/../h/riscv.hpp ****         {
 1816              		.loc 2 22 16 is_stmt 0
 1817 07f8 83C50400 		lbu	a1,0(s1)
  22:src/../h/riscv.hpp ****         {
 1818              		.loc 2 22 24
 1819 07fc 638E0500 		beqz	a1,.L56
  24:src/../h/riscv.hpp ****             string++;
 1820              		.loc 2 24 13 is_stmt 1
  24:src/../h/riscv.hpp ****             string++;
 1821              		.loc 2 24 29 is_stmt 0
 1822 0800 17050000 		ld	a0,.LANCHOR0+8
 1822      03350500 
 1823 0808 97000000 		call	_ZN8_console8cons_putEc@plt
 1823      E7800000 
 1824              	.LVL168:
  25:src/../h/riscv.hpp ****         }
 1825              		.loc 2 25 13 is_stmt 1
  25:src/../h/riscv.hpp ****         }
 1826              		.loc 2 25 19 is_stmt 0
 1827 0810 93841400 		addi	s1,s1,1
 1828              	.LVL169:
  22:src/../h/riscv.hpp ****         {
 1829              		.loc 2 22 9
 1830 0814 6FF05FFE 		j	.L54
 1831              	.L56:
 1832              	.LVL170:
 1833              	.LBE318:
 1834              	.LBE317:
 255:src/riscv.cpp ****     kernelPrint("\n");
 256:src/riscv.cpp ****     kernelPrint("sepc: ");
 257:src/riscv.cpp ****     kernelPrintInt(sepc,16);
 1835              		.loc 1 257 5 is_stmt 1
 1836              	.LBB319:
 1837              	.LBB320:
  30:src/../h/riscv.hpp ****         int i, neg;
 1838              		.loc 2 30 9
  31:src/../h/riscv.hpp ****         uint x;
 1839              		.loc 2 31 9
  32:src/../h/riscv.hpp **** 
GAS LISTING /tmp/cc8Nyx6Y.s 			page 52


 1840              		.loc 2 32 9
  34:src/../h/riscv.hpp ****         if(sgn && xx < 0){
 1841              		.loc 2 34 9
  35:src/../h/riscv.hpp ****             neg = 1;
 1842              		.loc 2 35 9
  39:src/../h/riscv.hpp ****         }
 1843              		.loc 2 39 13
  39:src/../h/riscv.hpp ****         }
 1844              		.loc 2 39 15 is_stmt 0
 1845 0818 1B090900 		sext.w	s2,s2
 1846              	.LVL171:
  42:src/../h/riscv.hpp ****         do{
 1847              		.loc 2 42 9 is_stmt 1
  42:src/../h/riscv.hpp ****         do{
 1848              		.loc 2 42 11 is_stmt 0
 1849 081c 93040000 		li	s1,0
 1850              	.LVL172:
 1851              	.L57:
  43:src/../h/riscv.hpp ****             buf[i++] = digits[x % base];
 1852              		.loc 2 43 9 is_stmt 1
  44:src/../h/riscv.hpp ****         }while((x /= base) != 0);
 1853              		.loc 2 44 13
  44:src/../h/riscv.hpp ****         }while((x /= base) != 0);
 1854              		.loc 2 44 39 is_stmt 0
 1855 0820 9376F900 		andi	a3,s2,15
 1856 0824 17070000 		lla	a4,.LANCHOR1
 1856      13070700 
 1857 082c 3307D700 		add	a4,a4,a3
 1858 0830 03470700 		lbu	a4,0(a4)
  44:src/../h/riscv.hpp ****         }while((x /= base) != 0);
 1859              		.loc 2 44 22
 1860 0834 930604FC 		addi	a3,s0,-64
 1861 0838 B3879600 		add	a5,a3,s1
 1862 083c 9B841400 		addiw	s1,s1,1
 1863              	.LVL173:
 1864 0840 2388E7FE 		sb	a4,-16(a5)
  45:src/../h/riscv.hpp ****         if(neg)
 1865              		.loc 2 45 28 is_stmt 1
 1866 0844 1B070900 		sext.w	a4,s2
  45:src/../h/riscv.hpp ****         if(neg)
 1867              		.loc 2 45 19 is_stmt 0
 1868 0848 1B594900 		srliw	s2,s2,4
 1869              	.LVL174:
  45:src/../h/riscv.hpp ****         if(neg)
 1870              		.loc 2 45 28
 1871 084c 9307F000 		li	a5,15
 1872 0850 E3E8E7FC 		bgtu	a4,a5,.L57
 1873              	.LVL175:
 1874              	.L59:
  49:src/../h/riscv.hpp ****             output->cons_put(buf[i]);
 1875              		.loc 2 49 9 is_stmt 1
  49:src/../h/riscv.hpp ****             output->cons_put(buf[i]);
 1876              		.loc 2 49 19
 1877 0854 9B84F4FF 		addiw	s1,s1,-1
 1878              	.LVL176:
 1879 0858 63C20402 		bltz	s1,.L58
  50:src/../h/riscv.hpp **** 
GAS LISTING /tmp/cc8Nyx6Y.s 			page 53


 1880              		.loc 2 50 13
  50:src/../h/riscv.hpp **** 
 1881              		.loc 2 50 29 is_stmt 0
 1882 085c 930704FC 		addi	a5,s0,-64
 1883 0860 B3879700 		add	a5,a5,s1
 1884 0864 83C507FF 		lbu	a1,-16(a5)
 1885 0868 17050000 		ld	a0,.LANCHOR0+8
 1885      03350500 
 1886 0870 97000000 		call	_ZN8_console8cons_putEc@plt
 1886      E7800000 
 1887              	.LVL177:
 1888 0878 6FF0DFFD 		j	.L59
 1889              	.L58:
  52:src/../h/riscv.hpp **** 
 1890              		.loc 2 52 5
 1891 087c 97040000 		lla	s1,.LC2
 1891      93840400 
 1892              	.LVL178:
 1893              	.L60:
 1894              	.LBE320:
 1895              	.LBE319:
 1896              	.LBB321:
 1897              	.LBB322:
  22:src/../h/riscv.hpp ****         {
 1898              		.loc 2 22 9 is_stmt 1
  22:src/../h/riscv.hpp ****         {
 1899              		.loc 2 22 24
  22:src/../h/riscv.hpp ****         {
 1900              		.loc 2 22 16 is_stmt 0
 1901 0884 83C50400 		lbu	a1,0(s1)
  22:src/../h/riscv.hpp ****         {
 1902              		.loc 2 22 24
 1903 0888 E38205C4 		beqz	a1,.L29
  24:src/../h/riscv.hpp ****             string++;
 1904              		.loc 2 24 13 is_stmt 1
  24:src/../h/riscv.hpp ****             string++;
 1905              		.loc 2 24 29 is_stmt 0
 1906 088c 17050000 		ld	a0,.LANCHOR0+8
 1906      03350500 
 1907 0894 97000000 		call	_ZN8_console8cons_putEc@plt
 1907      E7800000 
 1908              	.LVL179:
  25:src/../h/riscv.hpp ****         }
 1909              		.loc 2 25 13 is_stmt 1
  25:src/../h/riscv.hpp ****         }
 1910              		.loc 2 25 19 is_stmt 0
 1911 089c 93841400 		addi	s1,s1,1
 1912              	.LVL180:
  22:src/../h/riscv.hpp ****         {
 1913              		.loc 2 22 9
 1914 08a0 6FF05FFE 		j	.L60
 1915              	.LBE322:
 1916              	.LBE321:
 1917              	.LBE323:
 1918              	.LBE330:
 1919              	.LBE345:
 1920              	.LBE352:
GAS LISTING /tmp/cc8Nyx6Y.s 			page 54


 1921              	.LBE355:
 1922              		.cfi_endproc
 1923              	.LFE80:
 1925              		.align	2
 1926              		.globl	_ZN5Riscv9retTosretEv
 1928              	_ZN5Riscv9retTosretEv:
 1929              	.LFB81:
 228:src/riscv.cpp **** 
 1930              		.loc 1 228 25 is_stmt 1
 1931              		.cfi_startproc
 1932 08a4 130101FF 		addi	sp,sp,-16
 1933              		.cfi_def_cfa_offset 16
 1934 08a8 23348100 		sd	s0,8(sp)
 1935              		.cfi_offset 8, -8
 1936 08ac 13040101 		addi	s0,sp,16
 1937              		.cfi_def_cfa 8, 0
 230:src/riscv.cpp ****     __asm__ volatile ("sret");
 1938              		.loc 1 230 5
 230:src/riscv.cpp ****     __asm__ volatile ("sret");
 1939              		.loc 1 230 38 is_stmt 0
 1940              	#APP
 1941              	# 230 "src/riscv.cpp" 1
 231:src/riscv.cpp **** }
 1942              		csrw sepc,ra
 1943              	# 0 "" 2
 1944              		.loc 1 231 5 is_stmt 1
 231:src/riscv.cpp **** }
 1945              		.loc 1 231 30 is_stmt 0
 1946              	# 231 "src/riscv.cpp" 1
 232:src/riscv.cpp **** void Riscv::determinePrivilege() {
 1947              		sret
 1948              	# 0 "" 2
 1949              		.loc 1 232 1
 1950              	#NO_APP
 1951 08b8 03348100 		ld	s0,8(sp)
 1952              		.cfi_restore 8
 1953              		.cfi_def_cfa 2, 16
 1954 08bc 13010101 		addi	sp,sp,16
 1955              		.cfi_def_cfa_offset 0
 1956 08c0 67800000 		jr	ra
 1957              		.cfi_endproc
 1958              	.LFE81:
 1960              		.align	2
 1961              		.globl	_ZN5Riscv18determinePrivilegeEv
 1963              	_ZN5Riscv18determinePrivilegeEv:
 1964              	.LFB82:
 233:src/riscv.cpp ****     if(TCB::running->sys){
 1965              		.loc 1 233 34 is_stmt 1
 1966              		.cfi_startproc
 1967 08c4 130101FF 		addi	sp,sp,-16
 1968              		.cfi_def_cfa_offset 16
 1969 08c8 23348100 		sd	s0,8(sp)
 1970              		.cfi_offset 8, -8
 1971 08cc 13040101 		addi	s0,sp,16
 1972              		.cfi_def_cfa 8, 0
 234:src/riscv.cpp ****         ms_sstatus(SSTATUS_SPP);
 1973              		.loc 1 234 5
GAS LISTING /tmp/cc8Nyx6Y.s 			page 55


 234:src/riscv.cpp ****         ms_sstatus(SSTATUS_SPP);
 1974              		.loc 1 234 22 is_stmt 0
 1975 08d0 97070000 		la	a5,_ZN3TCB7runningE
 1975      83B70700 
 1976 08d8 83B70700 		ld	a5,0(a5)
 1977 08dc 83C71715 		lbu	a5,337(a5)
 234:src/riscv.cpp ****         ms_sstatus(SSTATUS_SPP);
 1978              		.loc 1 234 5
 1979 08e0 638C0700 		beqz	a5,.L74
 235:src/riscv.cpp ****     }
 1980              		.loc 1 235 9 is_stmt 1
 1981              	.LVL181:
 1982              	.LBB356:
 1983              	.LBB357:
 159:src/../h/riscv.hpp **** }
 1984              		.loc 2 159 5
 159:src/../h/riscv.hpp **** }
 1985              		.loc 2 159 67 is_stmt 0
 1986 08e4 93070010 		li	a5,256
 1987              	#APP
 1988              	# 159 "src/../h/riscv.hpp" 1
 1989              		csrs sstatus,a5
 1990              	# 0 "" 2
 1991              	.LVL182:
 1992              	#NO_APP
 1993              	.L73:
 1994              	.LBE357:
 1995              	.LBE356:
 240:src/riscv.cpp **** 
 1996              		.loc 1 240 1
 1997 08ec 03348100 		ld	s0,8(sp)
 1998              		.cfi_remember_state
 1999              		.cfi_restore 8
 2000              		.cfi_def_cfa 2, 16
 2001 08f0 13010101 		addi	sp,sp,16
 2002              		.cfi_def_cfa_offset 0
 2003 08f4 67800000 		jr	ra
 2004              	.L74:
 2005              		.cfi_restore_state
 238:src/riscv.cpp ****     }
 2006              		.loc 1 238 9 is_stmt 1
 2007              	.LVL183:
 2008              	.LBB358:
 2009              	.LBB359:
 162:src/../h/riscv.hpp **** }
 2010              		.loc 2 162 5
 162:src/../h/riscv.hpp **** }
 2011              		.loc 2 162 67 is_stmt 0
 2012 08f8 93070010 		li	a5,256
 2013              	#APP
 2014              	# 162 "src/../h/riscv.hpp" 1
 2015              		csrc sstatus,a5
 2016              	# 0 "" 2
 2017              	.LVL184:
 2018              	#NO_APP
 2019              	.LBE359:
 2020              	.LBE358:
GAS LISTING /tmp/cc8Nyx6Y.s 			page 56


 240:src/riscv.cpp **** 
 2021              		.loc 1 240 1
 2022 0900 6FF0DFFE 		j	.L73
 2023              		.cfi_endproc
 2024              	.LFE82:
 2026              		.align	2
 2027              		.globl	_ZN5Riscv12buffersReadyEv
 2029              	_ZN5Riscv12buffersReadyEv:
 2030              	.LFB84:
 258:src/riscv.cpp ****     kernelPrint("\n");
 259:src/riscv.cpp **** }
 260:src/riscv.cpp **** void Riscv::buffersReady() {
 2031              		.loc 1 260 28 is_stmt 1
 2032              		.cfi_startproc
 2033              		.cfi_personality 0x9b,DW.ref.__gxx_personality_v0
 2034              		.cfi_lsda 0x1b,.LLSDA84
 2035 0904 130101FE 		addi	sp,sp,-32
 2036              		.cfi_def_cfa_offset 32
 2037 0908 233C1100 		sd	ra,24(sp)
 2038 090c 23388100 		sd	s0,16(sp)
 2039 0910 23349100 		sd	s1,8(sp)
 2040 0914 23302101 		sd	s2,0(sp)
 2041              		.cfi_offset 1, -8
 2042              		.cfi_offset 8, -16
 2043              		.cfi_offset 9, -24
 2044              		.cfi_offset 18, -32
 2045 0918 13040102 		addi	s0,sp,32
 2046              		.cfi_def_cfa 8, 0
 261:src/riscv.cpp ****     input=new _console();
 2047              		.loc 1 261 5
 2048              	.LVL185:
 2049              	.LBB360:
 2050              	.LBB361:
 2051              		.file 5 "src/../h/_console.hpp"
   1:src/../h/_console.hpp **** //
   2:src/../h/_console.hpp **** // Created by os on 8/22/22.
   3:src/../h/_console.hpp **** //
   4:src/../h/_console.hpp **** 
   5:src/../h/_console.hpp **** #ifndef PROJECT_BASE_V1_1__CONSOLE_HPP
   6:src/../h/_console.hpp **** #define PROJECT_BASE_V1_1__CONSOLE_HPP
   7:src/../h/_console.hpp **** #include "_sem.hpp"
   8:src/../h/_console.hpp **** #include "MemoryAllocator.hpp"
   9:src/../h/_console.hpp **** 
  10:src/../h/_console.hpp **** class _console {
  11:src/../h/_console.hpp **** private:
  12:src/../h/_console.hpp ****     static constexpr int SIZE=256;
  13:src/../h/_console.hpp ****     Sem* spaceAval,*itemAval;
  14:src/../h/_console.hpp ****     char buffer[SIZE];
  15:src/../h/_console.hpp ****     int head,tail,size;
  16:src/../h/_console.hpp **** public:
  17:src/../h/_console.hpp ****     int getSize() const;
  18:src/../h/_console.hpp **** 
  19:src/../h/_console.hpp ****     void* operator new(uint64 n){
  20:src/../h/_console.hpp **** 
  21:src/../h/_console.hpp ****         return MemoryAllocator::mem_alloc(n+ sizeof(MemoryAllocator::MemDescr));
 2052              		.loc 5 21 9
 2053              		.loc 5 21 42 is_stmt 0
GAS LISTING /tmp/cc8Nyx6Y.s 			page 57


 2054 091c 13058014 		li	a0,328
 2055              	.LEHB0:
 2056 0920 97000000 		call	_ZN15MemoryAllocator9mem_allocEm@plt
 2056      E7800000 
 2057              	.LVL186:
 2058              	.LEHE0:
 2059 0928 93040500 		mv	s1,a0
 2060              	.LVL187:
 2061              	.LEHB1:
 2062              	.LBE361:
 2063              	.LBE360:
 2064 092c 97000000 		call	_ZN8_consoleC1Ev@plt
 2064      E7800000 
 2065              	.LVL188:
 2066              	.LEHE1:
 2067              		.loc 1 261 10 discriminator 2
 2068 0934 97070000 		sd	s1,.LANCHOR0,a5
 2068      23B09700 
 262:src/riscv.cpp ****     output=new _console();
 2069              		.loc 1 262 5 is_stmt 1 discriminator 2
 2070              	.LVL189:
 2071              	.LBB362:
 2072              	.LBB363:
 2073              		.loc 5 21 9 discriminator 2
 2074              		.loc 5 21 42 is_stmt 0 discriminator 2
 2075 093c 13058014 		li	a0,328
 2076              	.LEHB2:
 2077 0940 97000000 		call	_ZN15MemoryAllocator9mem_allocEm@plt
 2077      E7800000 
 2078              	.LVL190:
 2079              	.LEHE2:
 2080 0948 93040500 		mv	s1,a0
 2081              	.LVL191:
 2082              	.LEHB3:
 2083              	.LBE363:
 2084              	.LBE362:
 2085 094c 97000000 		call	_ZN8_consoleC1Ev@plt
 2085      E7800000 
 2086              	.LVL192:
 2087              	.LEHE3:
 2088              		.loc 1 262 11
 2089 0954 97070000 		sd	s1,.LANCHOR0+8,a5
 2089      23B09700 
 263:src/riscv.cpp **** }
 2090              		.loc 1 263 1
 2091 095c 83308101 		ld	ra,24(sp)
 2092              		.cfi_remember_state
 2093              		.cfi_restore 1
 2094 0960 03340101 		ld	s0,16(sp)
 2095              		.cfi_restore 8
 2096              		.cfi_def_cfa 2, 32
 2097 0964 83348100 		ld	s1,8(sp)
 2098              		.cfi_restore 9
 2099 0968 03390100 		ld	s2,0(sp)
 2100              		.cfi_restore 18
 2101 096c 13010102 		addi	sp,sp,32
 2102              		.cfi_def_cfa_offset 0
GAS LISTING /tmp/cc8Nyx6Y.s 			page 58


 2103 0970 67800000 		jr	ra
 2104              	.L80:
 2105              		.cfi_restore_state
 2106 0974 13090500 		mv	s2,a0
 2107              	.LVL193:
 2108              	.LBB364:
 2109              	.LBB365:
  22:src/../h/_console.hpp ****     }
  23:src/../h/_console.hpp ****     void* operator new[](uint64 n){
  24:src/../h/_console.hpp ****         return MemoryAllocator::mem_alloc(n+ sizeof(MemoryAllocator::MemDescr));
  25:src/../h/_console.hpp ****     }
  26:src/../h/_console.hpp ****     void operator delete(void* p) noexcept{
  27:src/../h/_console.hpp ****         MemoryAllocator::mem_free(p);
 2110              		.loc 5 27 9 is_stmt 1
 2111              		.loc 5 27 34 is_stmt 0
 2112 0978 13850400 		mv	a0,s1
 2113 097c 97000000 		call	_ZN15MemoryAllocator8mem_freeEPv@plt
 2113      E7800000 
 2114              	.LVL194:
 2115 0984 13050900 		mv	a0,s2
 2116              	.LEHB4:
 2117 0988 97000000 		call	_Unwind_Resume@plt
 2117      E7800000 
 2118              	.LVL195:
 2119              	.LEHE4:
 2120              	.L81:
 2121 0990 13090500 		mv	s2,a0
 2122              	.LVL196:
 2123              	.LBE365:
 2124              	.LBE364:
 2125              	.LBB366:
 2126              	.LBB367:
 2127              		.loc 5 27 9 is_stmt 1
 2128              		.loc 5 27 34 is_stmt 0
 2129 0994 13850400 		mv	a0,s1
 2130 0998 97000000 		call	_ZN15MemoryAllocator8mem_freeEPv@plt
 2130      E7800000 
 2131              	.LVL197:
 2132 09a0 13050900 		mv	a0,s2
 2133              	.LEHB5:
 2134 09a4 97000000 		call	_Unwind_Resume@plt
 2134      E7800000 
 2135              	.LVL198:
 2136              	.LEHE5:
 2137              	.LBE367:
 2138              	.LBE366:
 2139              		.cfi_endproc
 2140              	.LFE84:
 2141              		.globl	__gxx_personality_v0
 2142              		.section	.gcc_except_table,"a",@progbits
 2143              	.LLSDA84:
 2144 0000 FF       		.byte	0xff
 2145 0001 FF       		.byte	0xff
 2146 0002 03       		.byte	0x3
 2147 0003 4E       		.byte	0x4e
 2148 0004 00000000 		.4byte	.LEHB0-.LFB84
 2149 0008 00000000 		.4byte	.LEHE0-.LEHB0
GAS LISTING /tmp/cc8Nyx6Y.s 			page 59


 2150 000c 00000000 		.4byte	0
 2151 0010 00       		.byte	0
 2152 0011 00000000 		.4byte	.LEHB1-.LFB84
 2153 0015 00000000 		.4byte	.LEHE1-.LEHB1
 2154 0019 00000000 		.4byte	.L80-.LFB84
 2155 001d 00       		.byte	0
 2156 001e 00000000 		.4byte	.LEHB2-.LFB84
 2157 0022 00000000 		.4byte	.LEHE2-.LEHB2
 2158 0026 00000000 		.4byte	0
 2159 002a 00       		.byte	0
 2160 002b 00000000 		.4byte	.LEHB3-.LFB84
 2161 002f 00000000 		.4byte	.LEHE3-.LEHB3
 2162 0033 00000000 		.4byte	.L81-.LFB84
 2163 0037 00       		.byte	0
 2164 0038 00000000 		.4byte	.LEHB4-.LFB84
 2165 003c 00000000 		.4byte	.LEHE4-.LEHB4
 2166 0040 00000000 		.4byte	0
 2167 0044 00       		.byte	0
 2168 0045 00000000 		.4byte	.LEHB5-.LFB84
 2169 0049 00000000 		.4byte	.LEHE5-.LEHB5
 2170 004d 00000000 		.4byte	0
 2171 0051 00       		.byte	0
 2172              		.text
 2174              		.align	2
 2175              		.globl	_ZN5Riscv11returnValueEv
 2177              	_ZN5Riscv11returnValueEv:
 2178              	.LFB85:
 264:src/riscv.cpp **** 
 265:src/riscv.cpp **** uint64 Riscv::returnValue() {
 2179              		.loc 1 265 29 is_stmt 1
 2180              		.cfi_startproc
 2181 09ac 130101FE 		addi	sp,sp,-32
 2182              		.cfi_def_cfa_offset 32
 2183 09b0 233C8100 		sd	s0,24(sp)
 2184              		.cfi_offset 8, -8
 2185 09b4 13040102 		addi	s0,sp,32
 2186              		.cfi_def_cfa 8, 0
 266:src/riscv.cpp ****     uint64 volatile ret;
 2187              		.loc 1 266 5
 267:src/riscv.cpp ****     __asm__ volatile("mv %0,a0" : "=r"(ret));
 2188              		.loc 1 267 5
 2189              		.loc 1 267 45 is_stmt 0
 2190              	#APP
 2191              	# 267 "src/riscv.cpp" 1
 268              	    return ret;
 2192              		mv a5,a0
 2193              	# 0 "" 2
 2194              	#NO_APP
 2195 09bc 2334F4FE 		sd	a5,-24(s0)
 2196              		.loc 1 268 5 is_stmt 1
 2197              		.loc 1 268 12 is_stmt 0
 2198 09c0 033584FE 		ld	a0,-24(s0)
 269:src/riscv.cpp **** }...
 2199              		.loc 1 269 1
 2200 09c4 03348101 		ld	s0,24(sp)
 2201              		.cfi_restore 8
 2202              		.cfi_def_cfa 2, 32
GAS LISTING /tmp/cc8Nyx6Y.s 			page 60


 2203 09c8 13010102 		addi	sp,sp,32
 2204              		.cfi_def_cfa_offset 0
 2205 09cc 67800000 		jr	ra
 2206              		.cfi_endproc
 2207              	.LFE85:
 2209              		.globl	_ZN5Riscv6digitsE
 2210              		.globl	_ZN5Riscv6outputE
 2211              		.globl	_ZN5Riscv5inputE
 2212              		.data
 2213              		.align	3
 2214              		.set	.LANCHOR1,. + 0
 2217              	_ZN5Riscv6digitsE:
 2218 0000 30313233 		.string	"0123456789ABCDEF"
 2218      34353637 
 2218      38394142 
 2218      43444546 
 2218      00
 2219              		.bss
 2220              		.align	3
 2221              		.set	.LANCHOR0,. + 0
 2224              	_ZN5Riscv5inputE:
 2225 0000 00000000 		.zero	8
 2225      00000000 
 2228              	_ZN5Riscv6outputE:
 2229 0008 00000000 		.zero	8
 2229      00000000 
 2230              		.text
 2231              	.Letext0:
 2232              		.file 6 "src/../h/../lib/hw.h"
 2233              		.file 7 "src/../h/codes.hpp"
 2234              		.file 8 "src/../h/MemoryAllocator.hpp"
 2235              		.file 9 "src/../h/tcb.hpp"
 2236              		.file 10 "src/../h/../test/../h/syscall_c.h"
 2237              		.file 11 "src/../h/TimeSleep.hpp"
 2238              		.file 12 "src/../h/../test/printing.hpp"
 10538              		.align	3
 10541              	DW.ref.__gxx_personality_v0:
 10542 0000 00000000 		.dword	__gxx_personality_v0
 10542      00000000 
 10543              		.ident	"GCC: (Ubuntu 9.4.0-1ubuntu1~20.04) 9.4.0"
 10544              		.section	.note.GNU-stack,"",@progbits
GAS LISTING /tmp/cc8Nyx6Y.s 			page 61

