GAS LISTING /tmp/cctej8oc.s 			page 1


   1              		.file	"scheduler.cpp"
   2              		.option pic
   3              		.option norelax
   4              		.text
   5              	.Ltext0:
   6              		.align	2
   7              		.globl	_ZN9Scheduler3getEv
   9              	_ZN9Scheduler3getEv:
  10              	.LFB16:
  11              		.file 1 "src/scheduler.cpp"
   1:src/scheduler.cpp **** //
   2:src/scheduler.cpp **** // Created by os on 8/12/22.
   3:src/scheduler.cpp **** //
   4:src/scheduler.cpp **** 
   5:src/scheduler.cpp **** #include "../h/scheduler.hpp"
   6:src/scheduler.cpp **** 
   7:src/scheduler.cpp **** 
   8:src/scheduler.cpp **** TCB *Scheduler::get() {
  12              		.loc 1 8 23
  13              		.cfi_startproc
  14              	.LVL0:
  15 0000 130101FE 		addi	sp,sp,-32
  16              		.cfi_def_cfa_offset 32
  17 0004 233C1100 		sd	ra,24(sp)
  18 0008 23388100 		sd	s0,16(sp)
  19 000c 23349100 		sd	s1,8(sp)
  20 0010 23302101 		sd	s2,0(sp)
  21              		.cfi_offset 1, -8
  22              		.cfi_offset 8, -16
  23              		.cfi_offset 9, -24
  24              		.cfi_offset 18, -32
  25 0014 13040102 		addi	s0,sp,32
  26              		.cfi_def_cfa 8, 0
   9:src/scheduler.cpp ****     if(!readyThreads.peekFirst()){
  27              		.loc 1 9 5
  28              	.LVL1:
  29              	.LBB17:
  30              	.LBB18:
  31              		.file 2 "src/../h/list.hpp"
   1:src/../h/list.hpp **** //
   2:src/../h/list.hpp **** // Created by os on 8/11/22.
   3:src/../h/list.hpp **** //
   4:src/../h/list.hpp **** 
   5:src/../h/list.hpp **** #ifndef PROJECT_BASE_V1_1_LIST_HPP
   6:src/../h/list.hpp **** #define PROJECT_BASE_V1_1_LIST_HPP
   7:src/../h/list.hpp **** #include "MemoryAllocator.hpp"
   8:src/../h/list.hpp **** 
   9:src/../h/list.hpp **** template<typename T>
  10:src/../h/list.hpp **** class List{
  11:src/../h/list.hpp **** private:
  12:src/../h/list.hpp ****     struct Elem{
  13:src/../h/list.hpp ****         T* data;
  14:src/../h/list.hpp ****         Elem* next;
  15:src/../h/list.hpp ****         time_t time;
  16:src/../h/list.hpp ****         Elem(T* data, Elem* next): data(data), next(next),time(0){}
  17:src/../h/list.hpp ****     };
  18:src/../h/list.hpp ****     Elem* head,*tail;
GAS LISTING /tmp/cctej8oc.s 			page 2


  19:src/../h/list.hpp ****     int size;
  20:src/../h/list.hpp **** public:
  21:src/../h/list.hpp **** 
  22:src/../h/list.hpp ****     int getSize() const {
  23:src/../h/list.hpp ****         return size;
  24:src/../h/list.hpp ****     }
  25:src/../h/list.hpp ****     List():head(0),tail(0),size(0){}
  26:src/../h/list.hpp ****     List(const List<T>&) = delete;
  27:src/../h/list.hpp ****     List<T>& operator=(const List<T>&)=delete;
  28:src/../h/list.hpp ****     void addFirst(T* data){
  29:src/../h/list.hpp ****         //Elem* elem=new Elem(data,head);
  30:src/../h/list.hpp ****         Elem* elem=(Elem*)MemoryAllocator::mem_alloc(sizeof(Elem)+sizeof(MemoryAllocator::MemDescr)
  31:src/../h/list.hpp ****         elem->data=data;
  32:src/../h/list.hpp ****         elem->next=head;
  33:src/../h/list.hpp ****         head=elem;
  34:src/../h/list.hpp ****         if(tail) tail=head;
  35:src/../h/list.hpp ****         size++;
  36:src/../h/list.hpp ****     }
  37:src/../h/list.hpp ****     void addLast(T* data){
  38:src/../h/list.hpp ****         //Elem* elem=new Elem(data,0);
  39:src/../h/list.hpp ****         Elem* elem=(Elem*)MemoryAllocator::mem_alloc(sizeof(Elem)+sizeof(MemoryAllocator::MemDescr)
  40:src/../h/list.hpp ****         elem->data=data;
  41:src/../h/list.hpp ****         elem->next=nullptr;
  42:src/../h/list.hpp ****         if(tail){
  43:src/../h/list.hpp ****             tail->next=elem;
  44:src/../h/list.hpp ****             tail=elem;
  45:src/../h/list.hpp ****         }
  46:src/../h/list.hpp ****         else{
  47:src/../h/list.hpp ****             head=tail=elem;
  48:src/../h/list.hpp ****         }
  49:src/../h/list.hpp ****         size++;
  50:src/../h/list.hpp ****     }
  51:src/../h/list.hpp ****     T* removeFirst(){
  52:src/../h/list.hpp ****         if(!head) return 0;
  53:src/../h/list.hpp ****         Elem* elem=head;
  54:src/../h/list.hpp ****         head=head->next;
  55:src/../h/list.hpp ****         if(!head) tail=0;
  56:src/../h/list.hpp ****         T* ret=elem->data;
  57:src/../h/list.hpp ****         //delete elem;
  58:src/../h/list.hpp ****         MemoryAllocator::mem_free(elem);
  59:src/../h/list.hpp ****         size--;
  60:src/../h/list.hpp ****         return ret;
  61:src/../h/list.hpp ****     }
  62:src/../h/list.hpp ****     T* peekFirst(){
  63:src/../h/list.hpp ****         if(!head) return 0;
  32              		.loc 2 63 13 is_stmt 0
  33 0018 03390500 		ld	s2,0(a0)
  34              		.loc 2 63 9
  35 001c 630E0902 		beqz	s2,.L1
  36 0020 93040500 		mv	s1,a0
  64:src/../h/list.hpp ****         return head->data;
  37              		.loc 2 64 22
  38 0024 03390900 		ld	s2,0(s2)
  39              	.LVL2:
  40              	.LBE18:
  41              	.LBE17:
  42              		.loc 1 9 5
GAS LISTING /tmp/cctej8oc.s 			page 3


  43 0028 63080902 		beqz	s2,.L1
  10:src/scheduler.cpp ****         //napraviti idle nit
  11:src/scheduler.cpp ****         return nullptr;
  12:src/scheduler.cpp ****     }
  13:src/scheduler.cpp ****     else{
  14:src/scheduler.cpp ****         return readyThreads.removeFirst();
  44              		.loc 1 14 9 is_stmt 1
  45              	.LVL3:
  46              	.LBB19:
  47              	.LBB20:
  52:src/../h/list.hpp ****         Elem* elem=head;
  48              		.loc 2 52 13 is_stmt 0
  49 002c 03350500 		ld	a0,0(a0)
  50              	.LVL4:
  52:src/../h/list.hpp ****         Elem* elem=head;
  51              		.loc 2 52 9
  52 0030 63060504 		beqz	a0,.L5
  53              	.LVL5:
  54:src/../h/list.hpp ****         if(!head) tail=0;
  54              		.loc 2 54 20
  55 0034 83378500 		ld	a5,8(a0)
  54:src/../h/list.hpp ****         if(!head) tail=0;
  56              		.loc 2 54 9
  57 0038 23B0F400 		sd	a5,0(s1)
  55:src/../h/list.hpp ****         T* ret=elem->data;
  58              		.loc 2 55 9
  59 003c 638C0702 		beqz	a5,.L7
  60              	.L4:
  56:src/../h/list.hpp ****         //delete elem;
  61              		.loc 2 56 12
  62 0040 03390500 		ld	s2,0(a0)
  63              	.LVL6:
  58:src/../h/list.hpp ****         size--;
  64              		.loc 2 58 34
  65 0044 97000000 		call	_ZN15MemoryAllocator8mem_freeEPv@plt
  65      E7800000 
  66              	.LVL7:
  59:src/../h/list.hpp ****         return ret;
  67              		.loc 2 59 9
  68 004c 83A70401 		lw	a5,16(s1)
  69 0050 9B87F7FF 		addiw	a5,a5,-1
  70 0054 23A8F400 		sw	a5,16(s1)
  71              	.LVL8:
  72              	.L1:
  73              	.LBE20:
  74              	.LBE19:
  15:src/scheduler.cpp ****     }
  16:src/scheduler.cpp **** }
  75              		.loc 1 16 1
  76 0058 13050900 		mv	a0,s2
  77 005c 83308101 		ld	ra,24(sp)
  78              		.cfi_remember_state
  79              		.cfi_restore 1
  80 0060 03340101 		ld	s0,16(sp)
  81              		.cfi_restore 8
  82              		.cfi_def_cfa 2, 32
  83 0064 83348100 		ld	s1,8(sp)
GAS LISTING /tmp/cctej8oc.s 			page 4


  84              		.cfi_restore 9
  85 0068 03390100 		ld	s2,0(sp)
  86              		.cfi_restore 18
  87 006c 13010102 		addi	sp,sp,32
  88              		.cfi_def_cfa_offset 0
  89 0070 67800000 		jr	ra
  90              	.LVL9:
  91              	.L7:
  92              		.cfi_restore_state
  93              	.LBB22:
  94              	.LBB21:
  55:src/../h/list.hpp ****         T* ret=elem->data;
  95              		.loc 2 55 19
  96 0074 23B40400 		sd	zero,8(s1)
  97 0078 6FF09FFC 		j	.L4
  98              	.LVL10:
  99              	.L5:
  52:src/../h/list.hpp ****         Elem* elem=head;
 100              		.loc 2 52 26
 101 007c 13090500 		mv	s2,a0
 102              	.LVL11:
 103              	.LBE21:
 104              	.LBE22:
  14:src/scheduler.cpp ****     }
 105              		.loc 1 14 41
 106 0080 6FF09FFD 		j	.L1
 107              		.cfi_endproc
 108              	.LFE16:
 110              		.align	2
 111              		.globl	_ZN9Scheduler3putEP3TCB
 113              	_ZN9Scheduler3putEP3TCB:
 114              	.LFB17:
  17:src/scheduler.cpp **** 
  18:src/scheduler.cpp **** void Scheduler::put(TCB *tcb) {
 115              		.loc 1 18 31 is_stmt 1
 116              		.cfi_startproc
 117              	.LVL12:
 118 0084 130101FE 		addi	sp,sp,-32
 119              		.cfi_def_cfa_offset 32
 120 0088 233C1100 		sd	ra,24(sp)
 121 008c 23388100 		sd	s0,16(sp)
 122 0090 23349100 		sd	s1,8(sp)
 123 0094 23302101 		sd	s2,0(sp)
 124              		.cfi_offset 1, -8
 125              		.cfi_offset 8, -16
 126              		.cfi_offset 9, -24
 127              		.cfi_offset 18, -32
 128 0098 13040102 		addi	s0,sp,32
 129              		.cfi_def_cfa 8, 0
 130 009c 93040500 		mv	s1,a0
 131 00a0 13890500 		mv	s2,a1
  19:src/scheduler.cpp ****     readyThreads.addLast(tcb);
 132              		.loc 1 19 5
 133              	.LVL13:
 134              	.LBB25:
 135              	.LBB26:
  39:src/../h/list.hpp ****         elem->data=data;
GAS LISTING /tmp/cctej8oc.s 			page 5


 136              		.loc 2 39 53 is_stmt 0
 137 00a4 13050004 		li	a0,64
 138              	.LVL14:
 139 00a8 97000000 		call	_ZN15MemoryAllocator9mem_allocEm@plt
 139      E7800000 
 140              	.LVL15:
  40:src/../h/list.hpp ****         elem->next=nullptr;
 141              		.loc 2 40 9
 142 00b0 23302501 		sd	s2,0(a0)
  41:src/../h/list.hpp ****         if(tail){
 143              		.loc 2 41 9
 144 00b4 23340500 		sd	zero,8(a0)
  42:src/../h/list.hpp ****             tail->next=elem;
 145              		.loc 2 42 12
 146 00b8 83B78400 		ld	a5,8(s1)
  42:src/../h/list.hpp ****             tail->next=elem;
 147              		.loc 2 42 9
 148 00bc 63880702 		beqz	a5,.L9
  43:src/../h/list.hpp ****             tail=elem;
 149              		.loc 2 43 13
 150 00c0 23B4A700 		sd	a0,8(a5)
  44:src/../h/list.hpp ****         }
 151              		.loc 2 44 13
 152 00c4 23B4A400 		sd	a0,8(s1)
 153              	.L10:
  49:src/../h/list.hpp ****     }
 154              		.loc 2 49 9
 155 00c8 83A70401 		lw	a5,16(s1)
 156 00cc 9B871700 		addiw	a5,a5,1
 157 00d0 23A8F400 		sw	a5,16(s1)
 158              	.LVL16:
 159              	.LBE26:
 160              	.LBE25:
  20:src/scheduler.cpp **** }
 161              		.loc 1 20 1
 162 00d4 83308101 		ld	ra,24(sp)
 163              		.cfi_remember_state
 164              		.cfi_restore 1
 165 00d8 03340101 		ld	s0,16(sp)
 166              		.cfi_restore 8
 167              		.cfi_def_cfa 2, 32
 168 00dc 83348100 		ld	s1,8(sp)
 169              		.cfi_restore 9
 170              	.LVL17:
 171 00e0 03390100 		ld	s2,0(sp)
 172              		.cfi_restore 18
 173              	.LVL18:
 174 00e4 13010102 		addi	sp,sp,32
 175              		.cfi_def_cfa_offset 0
 176 00e8 67800000 		jr	ra
 177              	.LVL19:
 178              	.L9:
 179              		.cfi_restore_state
 180              	.LBB28:
 181              	.LBB27:
  47:src/../h/list.hpp ****         }
 182              		.loc 2 47 13
GAS LISTING /tmp/cctej8oc.s 			page 6


 183 00ec 23B4A400 		sd	a0,8(s1)
 184 00f0 23B0A400 		sd	a0,0(s1)
 185 00f4 6FF05FFD 		j	.L10
 186              	.LBE27:
 187              	.LBE28:
 188              		.cfi_endproc
 189              	.LFE17:
 191              		.align	2
 192              		.globl	_ZN9Scheduler11getInstanceEv
 194              	_ZN9Scheduler11getInstanceEv:
 195              	.LFB18:
  21:src/scheduler.cpp **** 
  22:src/scheduler.cpp **** Scheduler *Scheduler::getInstance() {
 196              		.loc 1 22 37 is_stmt 1
 197              		.cfi_startproc
 198 00f8 130101FF 		addi	sp,sp,-16
 199              		.cfi_def_cfa_offset 16
 200 00fc 23348100 		sd	s0,8(sp)
 201              		.cfi_offset 8, -8
 202 0100 13040101 		addi	s0,sp,16
 203              		.cfi_def_cfa 8, 0
  23:src/scheduler.cpp ****     static Scheduler instance;
 204              		.loc 1 23 5
 205              		.loc 1 23 22 is_stmt 0
 206 0104 97070000 		lbu	a5,.LANCHOR0
 206      83C70700 
 207 010c 63900702 		bnez	a5,.L13
 208              	.LVL20:
 209              	.LBB29:
 210              	.LBB30:
 211              	.LBB31:
 212              	.LBB32:
 213              	.LBB33:
  25:src/../h/list.hpp ****     List(const List<T>&) = delete;
 214              		.loc 2 25 34
 215 0110 97070000 		lla	a5,.LANCHOR0
 215      93870700 
 216 0118 23B40700 		sd	zero,8(a5)
 217 011c 23B80700 		sd	zero,16(a5)
 218 0120 23AC0700 		sw	zero,24(a5)
 219              	.LVL21:
 220              	.LBE33:
 221              	.LBE32:
 222              	.LBE31:
 223              	.LBE30:
 224              	.LBE29:
 225              		.loc 1 23 22
 226 0124 13071000 		li	a4,1
 227 0128 2380E700 		sb	a4,0(a5)
 228              	.L13:
  24:src/scheduler.cpp ****     return &instance;
 229              		.loc 1 24 5 is_stmt 1
  25:src/scheduler.cpp **** }
 230              		.loc 1 25 1 is_stmt 0
 231 012c 17050000 		lla	a0,.LANCHOR0+8
 231      13050500 
 232 0134 03348100 		ld	s0,8(sp)
GAS LISTING /tmp/cctej8oc.s 			page 7


 233              		.cfi_restore 8
 234              		.cfi_def_cfa 2, 16
 235 0138 13010101 		addi	sp,sp,16
 236              		.cfi_def_cfa_offset 0
 237 013c 67800000 		jr	ra
 238              		.cfi_endproc
 239              	.LFE18:
 241              		.bss
 242              		.align	3
 243              		.set	.LANCHOR0,. + 0
 246              	_ZGVZN9Scheduler11getInstanceEvE8instance:
 247 0000 00000000 		.zero	8
 247      00000000 
 250              	_ZZN9Scheduler11getInstanceEvE8instance:
 251 0008 00000000 		.zero	24
 251      00000000 
 251      00000000 
 251      00000000 
 251      00000000 
 252              		.text
 253              	.Letext0:
 254              		.file 3 "src/../h/../lib/hw.h"
 255              		.file 4 "src/../h/MemoryAllocator.hpp"
 256              		.file 5 "src/../h/scheduler.hpp"
GAS LISTING /tmp/cctej8oc.s 			page 8


DEFINED SYMBOLS
                            *ABS*:0000000000000000 scheduler.cpp
     /tmp/cctej8oc.s:9      .text:0000000000000000 _ZN9Scheduler3getEv
     /tmp/cctej8oc.s:13     .text:0000000000000000 .L0 
     /tmp/cctej8oc.s:15     .text:0000000000000000 .L0 
     /tmp/cctej8oc.s:16     .text:0000000000000004 .L0 
     /tmp/cctej8oc.s:21     .text:0000000000000014 .L0 
     /tmp/cctej8oc.s:22     .text:0000000000000014 .L0 
     /tmp/cctej8oc.s:23     .text:0000000000000014 .L0 
     /tmp/cctej8oc.s:24     .text:0000000000000014 .L0 
     /tmp/cctej8oc.s:26     .text:0000000000000018 .L0 
     /tmp/cctej8oc.s:32     .text:0000000000000018 .L0 
     /tmp/cctej8oc.s:33     .text:0000000000000018 .L0 
     /tmp/cctej8oc.s:35     .text:000000000000001c .L0 
     /tmp/cctej8oc.s:38     .text:0000000000000024 .L0 
     /tmp/cctej8oc.s:43     .text:0000000000000028 .L0 
     /tmp/cctej8oc.s:48     .text:000000000000002c .L0 
     /tmp/cctej8oc.s:49     .text:000000000000002c .L0 
     /tmp/cctej8oc.s:52     .text:0000000000000030 .L0 
     /tmp/cctej8oc.s:55     .text:0000000000000034 .L0 
     /tmp/cctej8oc.s:57     .text:0000000000000038 .L0 
     /tmp/cctej8oc.s:59     .text:000000000000003c .L0 
     /tmp/cctej8oc.s:62     .text:0000000000000040 .L0 
     /tmp/cctej8oc.s:65     .text:0000000000000044 .L0 
     /tmp/cctej8oc.s:68     .text:000000000000004c .L0 
     /tmp/cctej8oc.s:76     .text:0000000000000058 .L0 
     /tmp/cctej8oc.s:78     .text:0000000000000060 .L0 
     /tmp/cctej8oc.s:79     .text:0000000000000060 .L0 
     /tmp/cctej8oc.s:81     .text:0000000000000064 .L0 
     /tmp/cctej8oc.s:82     .text:0000000000000064 .L0 
     /tmp/cctej8oc.s:84     .text:0000000000000068 .L0 
     /tmp/cctej8oc.s:86     .text:000000000000006c .L0 
     /tmp/cctej8oc.s:88     .text:0000000000000070 .L0 
     /tmp/cctej8oc.s:92     .text:0000000000000074 .L0 
     /tmp/cctej8oc.s:96     .text:0000000000000074 .L0 
     /tmp/cctej8oc.s:101    .text:000000000000007c .L0 
     /tmp/cctej8oc.s:106    .text:0000000000000080 .L0 
     /tmp/cctej8oc.s:107    .text:0000000000000084 .L0 
     /tmp/cctej8oc.s:113    .text:0000000000000084 _ZN9Scheduler3putEP3TCB
     /tmp/cctej8oc.s:116    .text:0000000000000084 .L0 
     /tmp/cctej8oc.s:118    .text:0000000000000084 .L0 
     /tmp/cctej8oc.s:119    .text:0000000000000088 .L0 
     /tmp/cctej8oc.s:124    .text:0000000000000098 .L0 
     /tmp/cctej8oc.s:125    .text:0000000000000098 .L0 
     /tmp/cctej8oc.s:126    .text:0000000000000098 .L0 
     /tmp/cctej8oc.s:127    .text:0000000000000098 .L0 
     /tmp/cctej8oc.s:129    .text:000000000000009c .L0 
     /tmp/cctej8oc.s:136    .text:00000000000000a4 .L0 
     /tmp/cctej8oc.s:137    .text:00000000000000a4 .L0 
     /tmp/cctej8oc.s:142    .text:00000000000000b0 .L0 
     /tmp/cctej8oc.s:144    .text:00000000000000b4 .L0 
     /tmp/cctej8oc.s:146    .text:00000000000000b8 .L0 
     /tmp/cctej8oc.s:148    .text:00000000000000bc .L0 
     /tmp/cctej8oc.s:150    .text:00000000000000c0 .L0 
     /tmp/cctej8oc.s:152    .text:00000000000000c4 .L0 
     /tmp/cctej8oc.s:155    .text:00000000000000c8 .L0 
     /tmp/cctej8oc.s:162    .text:00000000000000d4 .L0 
GAS LISTING /tmp/cctej8oc.s 			page 9


     /tmp/cctej8oc.s:163    .text:00000000000000d8 .L0 
     /tmp/cctej8oc.s:164    .text:00000000000000d8 .L0 
     /tmp/cctej8oc.s:166    .text:00000000000000dc .L0 
     /tmp/cctej8oc.s:167    .text:00000000000000dc .L0 
     /tmp/cctej8oc.s:169    .text:00000000000000e0 .L0 
     /tmp/cctej8oc.s:172    .text:00000000000000e4 .L0 
     /tmp/cctej8oc.s:175    .text:00000000000000e8 .L0 
     /tmp/cctej8oc.s:179    .text:00000000000000ec .L0 
     /tmp/cctej8oc.s:183    .text:00000000000000ec .L0 
     /tmp/cctej8oc.s:188    .text:00000000000000f8 .L0 
     /tmp/cctej8oc.s:194    .text:00000000000000f8 _ZN9Scheduler11getInstanceEv
     /tmp/cctej8oc.s:197    .text:00000000000000f8 .L0 
     /tmp/cctej8oc.s:198    .text:00000000000000f8 .L0 
     /tmp/cctej8oc.s:199    .text:00000000000000fc .L0 
     /tmp/cctej8oc.s:201    .text:0000000000000100 .L0 
     /tmp/cctej8oc.s:203    .text:0000000000000104 .L0 
     /tmp/cctej8oc.s:205    .text:0000000000000104 .L0 
     /tmp/cctej8oc.s:206    .text:0000000000000104 .L0 
     /tmp/cctej8oc.s:215    .text:0000000000000110 .L0 
     /tmp/cctej8oc.s:226    .text:0000000000000124 .L0 
     /tmp/cctej8oc.s:230    .text:000000000000012c .L0 
     /tmp/cctej8oc.s:231    .text:000000000000012c .L0 
     /tmp/cctej8oc.s:233    .text:0000000000000138 .L0 
     /tmp/cctej8oc.s:234    .text:0000000000000138 .L0 
     /tmp/cctej8oc.s:236    .text:000000000000013c .L0 
     /tmp/cctej8oc.s:238    .text:0000000000000140 .L0 
     /tmp/cctej8oc.s:243    .bss:0000000000000000 .LANCHOR0
     /tmp/cctej8oc.s:246    .bss:0000000000000000 _ZGVZN9Scheduler11getInstanceEvE8instance
     /tmp/cctej8oc.s:250    .bss:0000000000000008 _ZZN9Scheduler11getInstanceEvE8instance
     /tmp/cctej8oc.s:257    .text:0000000000000140 .L0 
     /tmp/cctej8oc.s:206    .text:0000000000000104 .L0 
     /tmp/cctej8oc.s:215    .text:0000000000000110 .L0 
     /tmp/cctej8oc.s:231    .text:000000000000012c .L0 
     /tmp/cctej8oc.s:72     .text:0000000000000058 .L1
     /tmp/cctej8oc.s:99     .text:000000000000007c .L5
     /tmp/cctej8oc.s:91     .text:0000000000000074 .L7
     /tmp/cctej8oc.s:60     .text:0000000000000040 .L4
     /tmp/cctej8oc.s:178    .text:00000000000000ec .L9
     /tmp/cctej8oc.s:153    .text:00000000000000c8 .L10
     /tmp/cctej8oc.s:228    .text:000000000000012c .L13
     /tmp/cctej8oc.s:1225   .debug_abbrev:0000000000000000 .Ldebug_abbrev0
     /tmp/cctej8oc.s:2568   .debug_str:000000000000050a .LASF83
     /tmp/cctej8oc.s:2594   .debug_str:0000000000000687 .LASF84
     /tmp/cctej8oc.s:2600   .debug_str:00000000000006aa .LASF85
     /tmp/cctej8oc.s:5      .text:0000000000000000 .Ltext0
     /tmp/cctej8oc.s:253    .text:0000000000000140 .Letext0
     /tmp/cctej8oc.s:2406   .debug_line:0000000000000000 .Ldebug_line0
     /tmp/cctej8oc.s:2508   .debug_str:0000000000000351 .LASF0
     /tmp/cctej8oc.s:2516   .debug_str:0000000000000381 .LASF1
     /tmp/cctej8oc.s:2494   .debug_str:00000000000002e5 .LASF2
     /tmp/cctej8oc.s:2468   .debug_str:0000000000000229 .LASF4
     /tmp/cctej8oc.s:2550   .debug_str:0000000000000472 .LASF3
     /tmp/cctej8oc.s:2422   .debug_str:0000000000000089 .LASF5
     /tmp/cctej8oc.s:2440   .debug_str:000000000000012b .LASF6
     /tmp/cctej8oc.s:2518   .debug_str:0000000000000394 .LASF7
     /tmp/cctej8oc.s:2506   .debug_str:000000000000033e .LASF8
     /tmp/cctej8oc.s:2582   .debug_str:0000000000000633 .LASF9
GAS LISTING /tmp/cctej8oc.s 			page 10


     /tmp/cctej8oc.s:2458   .debug_str:00000000000001cd .LASF10
     /tmp/cctej8oc.s:2526   .debug_str:00000000000003bb .LASF11
     /tmp/cctej8oc.s:2574   .debug_str:00000000000005ec .LASF12
     /tmp/cctej8oc.s:2426   .debug_str:00000000000000bf .LASF13
     /tmp/cctej8oc.s:2412   .debug_str:0000000000000012 .LASF14
     /tmp/cctej8oc.s:2432   .debug_str:00000000000000f1 .LASF15
     /tmp/cctej8oc.s:2546   .debug_str:0000000000000457 .LASF16
     /tmp/cctej8oc.s:2436   .debug_str:0000000000000110 .LASF17
     /tmp/cctej8oc.s:2490   .debug_str:00000000000002cc .LASF37
     /tmp/cctej8oc.s:2576   .debug_str:00000000000005fb .LASF86
     /tmp/cctej8oc.s:2410   .debug_str:000000000000000d .LASF18
     /tmp/cctej8oc.s:2474   .debug_str:0000000000000249 .LASF19
     /tmp/cctej8oc.s:2558   .debug_str:00000000000004a5 .LASF87
     /tmp/cctej8oc.s:2536   .debug_str:0000000000000416 .LASF20
     /tmp/cctej8oc.s:2592   .debug_str:0000000000000682 .LASF21
     /tmp/cctej8oc.s:2598   .debug_str:00000000000006a5 .LASF22
     /tmp/cctej8oc.s:2588   .debug_str:0000000000000670 .LASF23
     /tmp/cctej8oc.s:2562   .debug_str:00000000000004cf .LASF24
     /tmp/cctej8oc.s:2528   .debug_str:00000000000003ca .LASF25
     /tmp/cctej8oc.s:2424   .debug_str:0000000000000090 .LASF27
     /tmp/cctej8oc.s:2554   .debug_str:000000000000048e .LASF26
     /tmp/cctej8oc.s:2416   .debug_str:0000000000000034 .LASF28
     /tmp/cctej8oc.s:2450   .debug_str:000000000000018d .LASF29
     /tmp/cctej8oc.s:2532   .debug_str:00000000000003d6 .LASF30
     /tmp/cctej8oc.s:2448   .debug_str:0000000000000184 .LASF31
     /tmp/cctej8oc.s:2456   .debug_str:00000000000001ac .LASF33
     /tmp/cctej8oc.s:2552   .debug_str:0000000000000484 .LASF32
     /tmp/cctej8oc.s:2560   .debug_str:00000000000004ae .LASF34
     /tmp/cctej8oc.s:2522   .debug_str:00000000000003ac .LASF88
     /tmp/cctej8oc.s:2566   .debug_str:00000000000004ee .LASF89
     /tmp/cctej8oc.s:2452   .debug_str:0000000000000197 .LASF35
     /tmp/cctej8oc.s:2470   .debug_str:0000000000000230 .LASF36
     /tmp/cctej8oc.s:2444   .debug_str:000000000000014e .LASF38
     /tmp/cctej8oc.s:2580   .debug_str:0000000000000617 .LASF39
     /tmp/cctej8oc.s:2586   .debug_str:0000000000000655 .LASF40
     /tmp/cctej8oc.s:2520   .debug_str:00000000000003a7 .LASF41
     /tmp/cctej8oc.s:2486   .debug_str:00000000000002bd .LASF42
     /tmp/cctej8oc.s:2488   .debug_str:00000000000002c7 .LASF45
     /tmp/cctej8oc.s:2538   .debug_str:0000000000000420 .LASF43
     /tmp/cctej8oc.s:2514   .debug_str:000000000000037c .LASF44
     /tmp/cctej8oc.s:2500   .debug_str:0000000000000300 .LASF46
     /tmp/cctej8oc.s:2438   .debug_str:0000000000000126 .LASF47
     /tmp/cctej8oc.s:2498   .debug_str:00000000000002fb .LASF48
     /tmp/cctej8oc.s:2540   .debug_str:0000000000000425 .LASF49
     /tmp/cctej8oc.s:2564   .debug_str:00000000000004d4 .LASF50
     /tmp/cctej8oc.s:2466   .debug_str:0000000000000224 .LASF51
     /tmp/cctej8oc.s:2510   .debug_str:000000000000035e .LASF52
     /tmp/cctej8oc.s:2544   .debug_str:0000000000000440 .LASF53
     /tmp/cctej8oc.s:2502   .debug_str:000000000000031f .LASF78
     /tmp/cctej8oc.s:2460   .debug_str:00000000000001db .LASF90
     /tmp/cctej8oc.s:2420   .debug_str:0000000000000080 .LASF54
     /tmp/cctej8oc.s:2446   .debug_str:0000000000000167 .LASF55
     /tmp/cctej8oc.s:2496   .debug_str:00000000000002f3 .LASF56
     /tmp/cctej8oc.s:2442   .debug_str:0000000000000132 .LASF57
     /tmp/cctej8oc.s:2570   .debug_str:00000000000005ce .LASF58
     /tmp/cctej8oc.s:2464   .debug_str:0000000000000206 .LASF59
     /tmp/cctej8oc.s:2428   .debug_str:00000000000000cf .LASF60
GAS LISTING /tmp/cctej8oc.s 			page 11


     /tmp/cctej8oc.s:2480   .debug_str:0000000000000286 .LASF61
     /tmp/cctej8oc.s:2512   .debug_str:0000000000000371 .LASF62
     /tmp/cctej8oc.s:2418   .debug_str:0000000000000063 .LASF63
     /tmp/cctej8oc.s:2484   .debug_str:00000000000002b4 .LASF64
     /tmp/cctej8oc.s:2476   .debug_str:000000000000024f .LASF65
     /tmp/cctej8oc.s:2524   .debug_str:00000000000003b1 .LASF66
     /tmp/cctej8oc.s:2408   .debug_str:0000000000000000 .LASF67
     /tmp/cctej8oc.s:2414   .debug_str:0000000000000022 .LASF73
     /tmp/cctej8oc.s:2590   .debug_str:0000000000000675 .LASF68
     /tmp/cctej8oc.s:2572   .debug_str:00000000000005da .LASF69
     /tmp/cctej8oc.s:2454   .debug_str:000000000000019c .LASF70
     /tmp/cctej8oc.s:2584   .debug_str:0000000000000643 .LASF71
     /tmp/cctej8oc.s:2556   .debug_str:0000000000000495 .LASF72
     /tmp/cctej8oc.s:2482   .debug_str:00000000000002a1 .LASF74
     /tmp/cctej8oc.s:2472   .debug_str:0000000000000236 .LASF75
     /tmp/cctej8oc.s:2542   .debug_str:000000000000042d .LASF76
     /tmp/cctej8oc.s:2462   .debug_str:00000000000001f2 .LASF91
     /tmp/cctej8oc.s:2430   .debug_str:00000000000000d9 .LASF92
     /tmp/cctej8oc.s:2596   .debug_str:0000000000000699 .LASF93
     /tmp/cctej8oc.s:2478   .debug_str:0000000000000269 .LASF94
     /tmp/cctej8oc.s:2578   .debug_str:0000000000000602 .LASF77
     /tmp/cctej8oc.s:2504   .debug_str:0000000000000329 .LASF79
     /tmp/cctej8oc.s:2530   .debug_str:00000000000003d1 .LASF80
     /tmp/cctej8oc.s:2548   .debug_str:000000000000046d .LASF81
     /tmp/cctej8oc.s:2434   .debug_str:00000000000000fd .LASF95
     /tmp/cctej8oc.s:195    .text:00000000000000f8 .LFB18
     /tmp/cctej8oc.s:239    .text:0000000000000140 .LFE18
     /tmp/cctej8oc.s:2492   .debug_str:00000000000002dc .LASF82
     /tmp/cctej8oc.s:209    .text:0000000000000110 .LBB29
     /tmp/cctej8oc.s:224    .text:0000000000000124 .LBE29
     /tmp/cctej8oc.s:2234   .debug_loc:0000000000000000 .LLST9
     /tmp/cctej8oc.s:211    .text:0000000000000110 .LBB31
     /tmp/cctej8oc.s:222    .text:0000000000000124 .LBE31
     /tmp/cctej8oc.s:114    .text:0000000000000084 .LFB17
     /tmp/cctej8oc.s:189    .text:00000000000000f8 .LFE17
     /tmp/cctej8oc.s:2243   .debug_loc:000000000000002c .LLST5
     /tmp/cctej8oc.s:2265   .debug_loc:000000000000008b .LLST6
     /tmp/cctej8oc.s:134    .text:00000000000000a4 .LBB25
     /tmp/cctej8oc.s:2392   .debug_ranges:0000000000000000 .Ldebug_ranges0
     /tmp/cctej8oc.s:2287   .debug_loc:00000000000000ea .LLST7
     /tmp/cctej8oc.s:2302   .debug_loc:0000000000000133 .LLST8
     /tmp/cctej8oc.s:140    .text:00000000000000b0 .LVL15
     /tmp/cctej8oc.s:10     .text:0000000000000000 .LFB16
     /tmp/cctej8oc.s:108    .text:0000000000000084 .LFE16
     /tmp/cctej8oc.s:2317   .debug_loc:000000000000017c .LLST0
     /tmp/cctej8oc.s:29     .text:0000000000000018 .LBB17
     /tmp/cctej8oc.s:41     .text:0000000000000028 .LBE17
     /tmp/cctej8oc.s:2339   .debug_loc:00000000000001db .LLST1
     /tmp/cctej8oc.s:46     .text:000000000000002c .LBB19
     /tmp/cctej8oc.s:2346   .debug_loc:00000000000001fe .LLST2
     /tmp/cctej8oc.s:2361   .debug_loc:0000000000000247 .LLST3
     /tmp/cctej8oc.s:2372   .debug_loc:000000000000027d .LLST4
     /tmp/cctej8oc.s:66     .text:000000000000004c .LVL7
     /tmp/cctej8oc.s:2534   .debug_str:0000000000000404 .LASF96
     /tmp/cctej8oc.s:208    .text:0000000000000110 .LVL20
     /tmp/cctej8oc.s:219    .text:0000000000000124 .LVL21
     /tmp/cctej8oc.s:117    .text:0000000000000084 .LVL12
GAS LISTING /tmp/cctej8oc.s 			page 12


     /tmp/cctej8oc.s:138    .text:00000000000000a8 .LVL14
     /tmp/cctej8oc.s:170    .text:00000000000000e0 .LVL17
     /tmp/cctej8oc.s:177    .text:00000000000000ec .LVL19
     /tmp/cctej8oc.s:173    .text:00000000000000e4 .LVL18
     /tmp/cctej8oc.s:133    .text:00000000000000a4 .LVL13
     /tmp/cctej8oc.s:158    .text:00000000000000d4 .LVL16
     /tmp/cctej8oc.s:14     .text:0000000000000000 .LVL0
     /tmp/cctej8oc.s:50     .text:0000000000000030 .LVL4
     /tmp/cctej8oc.s:71     .text:0000000000000058 .LVL8
     /tmp/cctej8oc.s:90     .text:0000000000000074 .LVL9
     /tmp/cctej8oc.s:28     .text:0000000000000018 .LVL1
     /tmp/cctej8oc.s:39     .text:0000000000000028 .LVL2
     /tmp/cctej8oc.s:45     .text:000000000000002c .LVL3
     /tmp/cctej8oc.s:102    .text:0000000000000080 .LVL11
     /tmp/cctej8oc.s:53     .text:0000000000000034 .LVL5
     /tmp/cctej8oc.s:98     .text:000000000000007c .LVL10
     /tmp/cctej8oc.s:63     .text:0000000000000044 .LVL6
     /tmp/cctej8oc.s:258    .debug_info:0000000000000000 .Ldebug_info0
     /tmp/cctej8oc.s:74     .text:0000000000000058 .LBE19
     /tmp/cctej8oc.s:93     .text:0000000000000074 .LBB22
     /tmp/cctej8oc.s:104    .text:0000000000000080 .LBE22
     /tmp/cctej8oc.s:160    .text:00000000000000d4 .LBE25
     /tmp/cctej8oc.s:180    .text:00000000000000ec .LBB28
     /tmp/cctej8oc.s:187    .text:00000000000000f8 .LBE28

UNDEFINED SYMBOLS
_ZN15MemoryAllocator8mem_freeEPv
_ZN15MemoryAllocator9mem_allocEm
