GAS LISTING /tmp/ccxk47PN.s 			page 1


   1              		.file	"Thread.cpp"
   2              		.option pic
   3              		.option norelax
   4              		.text
   5              	.Ltext0:
   6              		.section	.text._ZN6Thread3runEv,"axG",@progbits,_ZN6Thread3runEv,comdat
   7              		.align	2
   8              		.weak	_ZN6Thread3runEv
  10              	_ZN6Thread3runEv:
  11              	.LFB33:
  12              		.file 1 "src/../h/syscall_cpp.hpp"
   1:src/../h/syscall_cpp.hpp **** //
   2:src/../h/syscall_cpp.hpp **** // Created by os on 8/19/22.
   3:src/../h/syscall_cpp.hpp **** //
   4:src/../h/syscall_cpp.hpp **** 
   5:src/../h/syscall_cpp.hpp **** #ifndef PROJECT_BASE_V1_1_SYSCALL_CPP_HPP
   6:src/../h/syscall_cpp.hpp **** #define PROJECT_BASE_V1_1_SYSCALL_CPP_HPP
   7:src/../h/syscall_cpp.hpp **** 
   8:src/../h/syscall_cpp.hpp **** #include "syscall_c.h"
   9:src/../h/syscall_cpp.hpp **** #include "tcb.hpp"
  10:src/../h/syscall_cpp.hpp **** 
  11:src/../h/syscall_cpp.hpp **** class Thread{
  12:src/../h/syscall_cpp.hpp **** public:
  13:src/../h/syscall_cpp.hpp ****     Thread(void (*body)(void*),void* arg);
  14:src/../h/syscall_cpp.hpp ****     virtual ~Thread();
  15:src/../h/syscall_cpp.hpp ****     int start();
  16:src/../h/syscall_cpp.hpp ****     static void dispatch();
  17:src/../h/syscall_cpp.hpp ****     static int sleep(time_t);
  18:src/../h/syscall_cpp.hpp ****     static void wrapper(void* t);
  19:src/../h/syscall_cpp.hpp **** protected:
  20:src/../h/syscall_cpp.hpp ****     Thread();
  21:src/../h/syscall_cpp.hpp ****     virtual void run() {}
  13              		.loc 1 21 18
  14              		.cfi_startproc
  15              	.LVL0:
  16 0000 130101FF 		addi	sp,sp,-16
  17              		.cfi_def_cfa_offset 16
  18 0004 23348100 		sd	s0,8(sp)
  19              		.cfi_offset 8, -8
  20 0008 13040101 		addi	s0,sp,16
  21              		.cfi_def_cfa 8, 0
  22              		.loc 1 21 25 is_stmt 0
  23 000c 03348100 		ld	s0,8(sp)
  24              		.cfi_restore 8
  25              		.cfi_def_cfa 2, 16
  26 0010 13010101 		addi	sp,sp,16
  27              		.cfi_def_cfa_offset 0
  28 0014 67800000 		jr	ra
  29              		.cfi_endproc
  30              	.LFE33:
  32              		.text
  33              		.align	2
  34              		.globl	_ZN6Thread7wrapperEPv
  36              	_ZN6Thread7wrapperEPv:
  37              	.LFB41:
  38              		.file 2 "src/Thread.cpp"
   1:src/Thread.cpp **** //
GAS LISTING /tmp/ccxk47PN.s 			page 2


   2:src/Thread.cpp **** // Created by os on 8/20/22.
   3:src/Thread.cpp **** //
   4:src/Thread.cpp **** #include "../h/syscall_cpp.hpp"
   5:src/Thread.cpp **** 
   6:src/Thread.cpp **** Thread::Thread(void (*body)(void *), void *arg) {
   7:src/Thread.cpp ****     thread_make(&myHandle,body,arg);
   8:src/Thread.cpp **** }
   9:src/Thread.cpp **** 
  10:src/Thread.cpp **** Thread::Thread() {
  11:src/Thread.cpp ****     thread_make(&myHandle,wrapper,this);
  12:src/Thread.cpp **** }
  13:src/Thread.cpp **** 
  14:src/Thread.cpp **** void Thread::wrapper(void *t) {
  39              		.loc 2 14 31 is_stmt 1
  40              		.cfi_startproc
  41              	.LVL1:
  15:src/Thread.cpp ****     if(!t) return;
  42              		.loc 2 15 5
  43 0000 63080502 		beqz	a0,.L6
  14:src/Thread.cpp ****     if(!t) return;
  44              		.loc 2 14 31 is_stmt 0
  45 0004 130101FF 		addi	sp,sp,-16
  46              		.cfi_def_cfa_offset 16
  47 0008 23341100 		sd	ra,8(sp)
  48 000c 23308100 		sd	s0,0(sp)
  49              		.cfi_offset 1, -8
  50              		.cfi_offset 8, -16
  51 0010 13040101 		addi	s0,sp,16
  52              		.cfi_def_cfa 8, 0
  16:src/Thread.cpp ****     ((Thread*)t)->run();
  53              		.loc 2 16 5 is_stmt 1
  54              		.loc 2 16 23 is_stmt 0
  55 0014 83370500 		ld	a5,0(a0)
  56 0018 83B70701 		ld	a5,16(a5)
  57              		.loc 2 16 22
  58 001c E7800700 		jalr	a5
  59              	.LVL2:
  17:src/Thread.cpp **** }
  60              		.loc 2 17 1
  61 0020 83308100 		ld	ra,8(sp)
  62              		.cfi_restore 1
  63 0024 03340100 		ld	s0,0(sp)
  64              		.cfi_restore 8
  65              		.cfi_def_cfa 2, 16
  66 0028 13010101 		addi	sp,sp,16
  67              		.cfi_def_cfa_offset 0
  68 002c 67800000 		jr	ra
  69              	.LVL3:
  70              	.L6:
  71 0030 67800000 		ret
  72              		.cfi_endproc
  73              	.LFE41:
  75              		.align	2
  76              		.globl	_ZN6ThreadD2Ev
  78              	_ZN6ThreadD2Ev:
  79              	.LFB45:
  18:src/Thread.cpp **** 
GAS LISTING /tmp/ccxk47PN.s 			page 3


  19:src/Thread.cpp **** int Thread::start() {
  20:src/Thread.cpp **** 
  21:src/Thread.cpp ****     myHandle->startThread();
  22:src/Thread.cpp ****     return 0;
  23:src/Thread.cpp **** }
  24:src/Thread.cpp **** 
  25:src/Thread.cpp **** void Thread::dispatch() {
  26:src/Thread.cpp ****     thread_dispatch();
  27:src/Thread.cpp **** }
  28:src/Thread.cpp **** 
  29:src/Thread.cpp **** Thread::~Thread() {
  80              		.loc 2 29 1 is_stmt 1
  81              		.cfi_startproc
  82              		.cfi_personality 0x9b,DW.ref.__gxx_personality_v0
  83              		.cfi_lsda 0x1b,.LLSDA45
  84              	.LVL4:
  85 0034 130101FE 		addi	sp,sp,-32
  86              		.cfi_def_cfa_offset 32
  87 0038 233C1100 		sd	ra,24(sp)
  88 003c 23388100 		sd	s0,16(sp)
  89 0040 23349100 		sd	s1,8(sp)
  90              		.cfi_offset 1, -8
  91              		.cfi_offset 8, -16
  92              		.cfi_offset 9, -24
  93 0044 13040102 		addi	s0,sp,32
  94              		.cfi_def_cfa 8, 0
  95              	.LBB11:
  96              		.loc 2 29 17 is_stmt 0
  97 0048 97070000 		lla	a5,_ZTV6Thread+16
  97      93870700 
  98 0050 2330F500 		sd	a5,0(a0)
  30:src/Thread.cpp ****     delete myHandle;
  99              		.loc 2 30 5 is_stmt 1
 100              		.loc 2 30 12 is_stmt 0
 101 0054 83348500 		ld	s1,8(a0)
 102              		.loc 2 30 20
 103 0058 63880402 		beqz	s1,.L9
 104              	.LVL5:
 105              	.LBB12:
 106              	.LBB13:
 107              		.file 3 "src/../h/tcb.hpp"
   1:src/../h/tcb.hpp **** //
   2:src/../h/tcb.hpp **** // Created by os on 8/12/22.
   3:src/../h/tcb.hpp **** //
   4:src/../h/tcb.hpp **** 
   5:src/../h/tcb.hpp **** #ifndef PROJECT_BASE_V1_1_TCB_HPP
   6:src/../h/tcb.hpp **** #define PROJECT_BASE_V1_1_TCB_HPP
   7:src/../h/tcb.hpp **** #include "../lib/hw.h"
   8:src/../h/tcb.hpp **** #include "scheduler.hpp"
   9:src/../h/tcb.hpp **** #include "MemoryAllocator.hpp"
  10:src/../h/tcb.hpp **** #include "../test/printing.hpp"
  11:src/../h/tcb.hpp **** #include "syscall_c.h"
  12:src/../h/tcb.hpp **** #include "../lib/mem.h"
  13:src/../h/tcb.hpp **** 
  14:src/../h/tcb.hpp **** class TCB {
  15:src/../h/tcb.hpp **** public:
  16:src/../h/tcb.hpp ****     ~TCB(){
GAS LISTING /tmp/ccxk47PN.s 			page 4


  17:src/../h/tcb.hpp ****         if(stack) {
 108              		.loc 3 17 9 is_stmt 1
 109              		.loc 3 17 12 is_stmt 0
 110 005c 03B50413 		ld	a0,304(s1)
 111              	.LVL6:
 112              		.loc 3 17 9
 113 0060 63060500 		beqz	a0,.L11
  18:src/../h/tcb.hpp ****             delete[] stack;
 114              		.loc 3 18 13 is_stmt 1
 115              		.loc 3 18 22 is_stmt 0
 116 0064 97000000 		call	_ZdaPv@plt
 116      E7800000 
 117              	.LVL7:
 118              	.L11:
  19:src/../h/tcb.hpp ****         }
  20:src/../h/tcb.hpp ****         if(sstack) {
 119              		.loc 3 20 9 is_stmt 1
 120              		.loc 3 20 12 is_stmt 0
 121 006c 03B58413 		ld	a0,312(s1)
 122              		.loc 3 20 9
 123 0070 63060500 		beqz	a0,.L12
  21:src/../h/tcb.hpp ****             delete[] sstack;
 124              		.loc 3 21 13 is_stmt 1
 125              		.loc 3 21 22 is_stmt 0
 126 0074 97000000 		call	_ZdaPv@plt
 126      E7800000 
 127              	.LVL8:
 128              	.L12:
  22:src/../h/tcb.hpp ****         }
  23:src/../h/tcb.hpp ****         body=nullptr;
 129              		.loc 3 23 9 is_stmt 1
  24:src/../h/tcb.hpp ****         sstack=stack=nullptr;
 130              		.loc 3 24 9
  25:src/../h/tcb.hpp ****         par=nullptr;
 131              		.loc 3 25 9
  26:src/../h/tcb.hpp ****         ssp=0;
 132              		.loc 3 26 9
  27:src/../h/tcb.hpp ****         finished=true;
 133              		.loc 3 27 9
  28:src/../h/tcb.hpp ****         timeSlice=0;
 134              		.loc 3 28 9
  29:src/../h/tcb.hpp ****         context.ra=context.sp=0;
 135              		.loc 3 29 9
 136              	.LBE13:
 137              	.LBE12:
 138              	.LBB14:
 139              	.LBB15:
  30:src/../h/tcb.hpp ****     }
  31:src/../h/tcb.hpp ****     static void blockThread(time_t t);
  32:src/../h/tcb.hpp ****     using Body = void (*)(void*);
  33:src/../h/tcb.hpp ****     static TCB* createThread(Body body,void* par,void* stack,uint64 timeSlice=DEFAULT_TIME_SLICE);
  34:src/../h/tcb.hpp **** 
  35:src/../h/tcb.hpp ****     bool isFinished() const{
  36:src/../h/tcb.hpp ****         return finished;
  37:src/../h/tcb.hpp ****     }
  38:src/../h/tcb.hpp ****     static void changeRunning(TCB** old,TCB** newT);
  39:src/../h/tcb.hpp ****     void setFinished(bool finished){
GAS LISTING /tmp/ccxk47PN.s 			page 5


  40:src/../h/tcb.hpp ****         TCB::finished = finished;
  41:src/../h/tcb.hpp ****     }
  42:src/../h/tcb.hpp ****     static void yield();
  43:src/../h/tcb.hpp **** 
  44:src/../h/tcb.hpp ****     uint64 getTimeSlice() const{
  45:src/../h/tcb.hpp ****         return timeSlice;
  46:src/../h/tcb.hpp ****     }
  47:src/../h/tcb.hpp ****     static int thread_exit();
  48:src/../h/tcb.hpp ****     void setTimeSlice(uint64 timeSlice){
  49:src/../h/tcb.hpp ****         TCB::timeSlice = timeSlice;
  50:src/../h/tcb.hpp ****     }
  51:src/../h/tcb.hpp **** 
  52:src/../h/tcb.hpp ****     struct Context{
  53:src/../h/tcb.hpp ****         uint64 x0,ra,sp,gp,tp,x5,x6,x7,s0,s1,a0,a1,a2,a3,a4,a5,a6,a7,s2,s3,s4,s5,s6,s7,s8,s9,s10,s1
  54:src/../h/tcb.hpp ****         Context(uint64 ra,uint64 sp){
  55:src/../h/tcb.hpp ****             this->ra=ra;
  56:src/../h/tcb.hpp ****             this->sp=sp;
  57:src/../h/tcb.hpp ****             x0=gp=tp=x5=x6=x7=s0=s1=a0=a1=a2=a3=a4=a5=a6=a7=s2=s3=s4=s5=s6=s7=s8=s9=s10=s11=x28=x29
  58:src/../h/tcb.hpp ****         }
  59:src/../h/tcb.hpp ****     };
  60:src/../h/tcb.hpp ****     static TCB* running;
  61:src/../h/tcb.hpp ****     void* operator new(uint64 n){
  62:src/../h/tcb.hpp **** 
  63:src/../h/tcb.hpp ****         return MemoryAllocator::mem_alloc(n+ sizeof(MemoryAllocator::MemDescr));
  64:src/../h/tcb.hpp ****     }
  65:src/../h/tcb.hpp ****     void* operator new[](uint64 n){
  66:src/../h/tcb.hpp ****         return MemoryAllocator::mem_alloc(n+ sizeof(MemoryAllocator::MemDescr));
  67:src/../h/tcb.hpp ****     }
  68:src/../h/tcb.hpp ****     void operator delete(void* p) noexcept{
  69:src/../h/tcb.hpp ****         MemoryAllocator::mem_free(p);
 140              		.loc 3 69 9
 141              		.loc 3 69 34 is_stmt 0
 142 007c 13850400 		mv	a0,s1
 143 0080 97000000 		call	_ZN15MemoryAllocator8mem_freeEPv@plt
 143      E7800000 
 144              	.LVL9:
 145              	.L9:
 146              	.LBE15:
 147              	.LBE14:
 148              	.LBE11:
  31:src/Thread.cpp **** }
 149              		.loc 2 31 1
 150 0088 83308101 		ld	ra,24(sp)
 151              		.cfi_restore 1
 152 008c 03340101 		ld	s0,16(sp)
 153              		.cfi_restore 8
 154              		.cfi_def_cfa 2, 32
 155 0090 83348100 		ld	s1,8(sp)
 156              		.cfi_restore 9
 157 0094 13010102 		addi	sp,sp,32
 158              		.cfi_def_cfa_offset 0
 159 0098 67800000 		jr	ra
 160              		.cfi_endproc
 161              	.LFE45:
 162              		.globl	__gxx_personality_v0
 163              		.section	.gcc_except_table,"a",@progbits
 164              	.LLSDA45:
GAS LISTING /tmp/ccxk47PN.s 			page 6


 165 0000 FF       		.byte	0xff
 166 0001 FF       		.byte	0xff
 167 0002 03       		.byte	0x3
 168 0003 00       		.byte	0
 169              		.text
 171              		.globl	_ZN6ThreadD1Ev
 172              		.set	_ZN6ThreadD1Ev,_ZN6ThreadD2Ev
 173              		.align	2
 174              		.globl	_ZN6ThreadD0Ev
 176              	_ZN6ThreadD0Ev:
 177              	.LFB47:
  29:src/Thread.cpp ****     delete myHandle;
 178              		.loc 2 29 1 is_stmt 1
 179              		.cfi_startproc
 180              	.LVL10:
 181 009c 130101FE 		addi	sp,sp,-32
 182              		.cfi_def_cfa_offset 32
 183 00a0 233C1100 		sd	ra,24(sp)
 184 00a4 23388100 		sd	s0,16(sp)
 185 00a8 23349100 		sd	s1,8(sp)
 186              		.cfi_offset 1, -8
 187              		.cfi_offset 8, -16
 188              		.cfi_offset 9, -24
 189 00ac 13040102 		addi	s0,sp,32
 190              		.cfi_def_cfa 8, 0
 191 00b0 93040500 		mv	s1,a0
 192              		.loc 2 31 1 is_stmt 0
 193 00b4 97000000 		call	_ZN6ThreadD1Ev
 193      E7800000 
 194              	.LVL11:
 195 00bc 13850400 		mv	a0,s1
 196 00c0 97000000 		call	_ZdlPv@plt
 196      E7800000 
 197              	.LVL12:
 198 00c8 83308101 		ld	ra,24(sp)
 199              		.cfi_restore 1
 200 00cc 03340101 		ld	s0,16(sp)
 201              		.cfi_restore 8
 202              		.cfi_def_cfa 2, 32
 203 00d0 83348100 		ld	s1,8(sp)
 204              		.cfi_restore 9
 205              	.LVL13:
 206 00d4 13010102 		addi	sp,sp,32
 207              		.cfi_def_cfa_offset 0
 208 00d8 67800000 		jr	ra
 209              		.cfi_endproc
 210              	.LFE47:
 212              		.align	2
 213              		.globl	_ZN6ThreadC2EPFvPvES0_
 215              	_ZN6ThreadC2EPFvPvES0_:
 216              	.LFB36:
   6:src/Thread.cpp ****     thread_make(&myHandle,body,arg);
 217              		.loc 2 6 1 is_stmt 1
 218              		.cfi_startproc
 219              	.LVL14:
 220 00dc 130101FF 		addi	sp,sp,-16
 221              		.cfi_def_cfa_offset 16
GAS LISTING /tmp/ccxk47PN.s 			page 7


 222 00e0 23341100 		sd	ra,8(sp)
 223 00e4 23308100 		sd	s0,0(sp)
 224              		.cfi_offset 1, -8
 225              		.cfi_offset 8, -16
 226 00e8 13040101 		addi	s0,sp,16
 227              		.cfi_def_cfa 8, 0
 228              	.LBB16:
   6:src/Thread.cpp ****     thread_make(&myHandle,body,arg);
 229              		.loc 2 6 47 is_stmt 0
 230 00ec 97070000 		lla	a5,_ZTV6Thread+16
 230      93870700 
 231 00f4 2330F500 		sd	a5,0(a0)
   7:src/Thread.cpp **** }
 232              		.loc 2 7 5 is_stmt 1
   7:src/Thread.cpp **** }
 233              		.loc 2 7 16 is_stmt 0
 234 00f8 13058500 		addi	a0,a0,8
 235              	.LVL15:
 236 00fc 97000000 		call	_Z11thread_makePP3TCBPFvPvES2_@plt
 236      E7800000 
 237              	.LVL16:
 238              	.LBE16:
   8:src/Thread.cpp **** 
 239              		.loc 2 8 1
 240 0104 83308100 		ld	ra,8(sp)
 241              		.cfi_restore 1
 242 0108 03340100 		ld	s0,0(sp)
 243              		.cfi_restore 8
 244              		.cfi_def_cfa 2, 16
 245 010c 13010101 		addi	sp,sp,16
 246              		.cfi_def_cfa_offset 0
 247 0110 67800000 		jr	ra
 248              		.cfi_endproc
 249              	.LFE36:
 251              		.globl	_ZN6ThreadC1EPFvPvES0_
 252              		.set	_ZN6ThreadC1EPFvPvES0_,_ZN6ThreadC2EPFvPvES0_
 253              		.align	2
 254              		.globl	_ZN6ThreadC2Ev
 256              	_ZN6ThreadC2Ev:
 257              	.LFB39:
  10:src/Thread.cpp ****     thread_make(&myHandle,wrapper,this);
 258              		.loc 2 10 1 is_stmt 1
 259              		.cfi_startproc
 260              	.LVL17:
 261 0114 130101FF 		addi	sp,sp,-16
 262              		.cfi_def_cfa_offset 16
 263 0118 23341100 		sd	ra,8(sp)
 264 011c 23308100 		sd	s0,0(sp)
 265              		.cfi_offset 1, -8
 266              		.cfi_offset 8, -16
 267 0120 13040101 		addi	s0,sp,16
 268              		.cfi_def_cfa 8, 0
 269              	.LBB17:
  10:src/Thread.cpp ****     thread_make(&myHandle,wrapper,this);
 270              		.loc 2 10 16 is_stmt 0
 271 0124 97070000 		lla	a5,_ZTV6Thread+16
 271      93870700 
GAS LISTING /tmp/ccxk47PN.s 			page 8


 272 012c 2330F500 		sd	a5,0(a0)
  11:src/Thread.cpp **** }
 273              		.loc 2 11 5 is_stmt 1
  11:src/Thread.cpp **** }
 274              		.loc 2 11 16 is_stmt 0
 275 0130 13060500 		mv	a2,a0
 276 0134 97050000 		lla	a1,_ZN6Thread7wrapperEPv
 276      93850500 
 277 013c 13058500 		addi	a0,a0,8
 278              	.LVL18:
 279 0140 97000000 		call	_Z11thread_makePP3TCBPFvPvES2_@plt
 279      E7800000 
 280              	.LVL19:
 281              	.LBE17:
  12:src/Thread.cpp **** 
 282              		.loc 2 12 1
 283 0148 83308100 		ld	ra,8(sp)
 284              		.cfi_restore 1
 285 014c 03340100 		ld	s0,0(sp)
 286              		.cfi_restore 8
 287              		.cfi_def_cfa 2, 16
 288 0150 13010101 		addi	sp,sp,16
 289              		.cfi_def_cfa_offset 0
 290 0154 67800000 		jr	ra
 291              		.cfi_endproc
 292              	.LFE39:
 294              		.globl	_ZN6ThreadC1Ev
 295              		.set	_ZN6ThreadC1Ev,_ZN6ThreadC2Ev
 296              		.align	2
 297              		.globl	_ZN6Thread5startEv
 299              	_ZN6Thread5startEv:
 300              	.LFB42:
  19:src/Thread.cpp **** 
 301              		.loc 2 19 21 is_stmt 1
 302              		.cfi_startproc
 303              	.LVL20:
 304 0158 130101FF 		addi	sp,sp,-16
 305              		.cfi_def_cfa_offset 16
 306 015c 23341100 		sd	ra,8(sp)
 307 0160 23308100 		sd	s0,0(sp)
 308              		.cfi_offset 1, -8
 309              		.cfi_offset 8, -16
 310 0164 13040101 		addi	s0,sp,16
 311              		.cfi_def_cfa 8, 0
  21:src/Thread.cpp ****     return 0;
 312              		.loc 2 21 5
  21:src/Thread.cpp ****     return 0;
 313              		.loc 2 21 26 is_stmt 0
 314 0168 03358500 		ld	a0,8(a0)
 315              	.LVL21:
 316 016c 97000000 		call	_ZN3TCB11startThreadEv@plt
 316      E7800000 
 317              	.LVL22:
  22:src/Thread.cpp **** }
 318              		.loc 2 22 5 is_stmt 1
  23:src/Thread.cpp **** 
 319              		.loc 2 23 1 is_stmt 0
GAS LISTING /tmp/ccxk47PN.s 			page 9


 320 0174 13050000 		li	a0,0
 321 0178 83308100 		ld	ra,8(sp)
 322              		.cfi_restore 1
 323 017c 03340100 		ld	s0,0(sp)
 324              		.cfi_restore 8
 325              		.cfi_def_cfa 2, 16
 326 0180 13010101 		addi	sp,sp,16
 327              		.cfi_def_cfa_offset 0
 328 0184 67800000 		jr	ra
 329              		.cfi_endproc
 330              	.LFE42:
 332              		.align	2
 333              		.globl	_ZN6Thread8dispatchEv
 335              	_ZN6Thread8dispatchEv:
 336              	.LFB43:
  25:src/Thread.cpp ****     thread_dispatch();
 337              		.loc 2 25 25 is_stmt 1
 338              		.cfi_startproc
 339 0188 130101FF 		addi	sp,sp,-16
 340              		.cfi_def_cfa_offset 16
 341 018c 23341100 		sd	ra,8(sp)
 342 0190 23308100 		sd	s0,0(sp)
 343              		.cfi_offset 1, -8
 344              		.cfi_offset 8, -16
 345 0194 13040101 		addi	s0,sp,16
 346              		.cfi_def_cfa 8, 0
  26:src/Thread.cpp **** }
 347              		.loc 2 26 5
  26:src/Thread.cpp **** }
 348              		.loc 2 26 20 is_stmt 0
 349 0198 97000000 		call	_Z15thread_dispatchv@plt
 349      E7800000 
 350              	.LVL23:
  27:src/Thread.cpp **** 
 351              		.loc 2 27 1
 352 01a0 83308100 		ld	ra,8(sp)
 353              		.cfi_restore 1
 354 01a4 03340100 		ld	s0,0(sp)
 355              		.cfi_restore 8
 356              		.cfi_def_cfa 2, 16
 357 01a8 13010101 		addi	sp,sp,16
 358              		.cfi_def_cfa_offset 0
 359 01ac 67800000 		jr	ra
 360              		.cfi_endproc
 361              	.LFE43:
 363              		.align	2
 364              		.globl	_ZN6Thread5sleepEm
 366              	_ZN6Thread5sleepEm:
 367              	.LFB48:
  32:src/Thread.cpp **** 
  33:src/Thread.cpp **** int Thread::sleep(time_t t) {
 368              		.loc 2 33 29 is_stmt 1
 369              		.cfi_startproc
 370              	.LVL24:
 371 01b0 130101FF 		addi	sp,sp,-16
 372              		.cfi_def_cfa_offset 16
 373 01b4 23341100 		sd	ra,8(sp)
GAS LISTING /tmp/ccxk47PN.s 			page 10


 374 01b8 23308100 		sd	s0,0(sp)
 375              		.cfi_offset 1, -8
 376              		.cfi_offset 8, -16
 377 01bc 13040101 		addi	s0,sp,16
 378              		.cfi_def_cfa 8, 0
  34:src/Thread.cpp ****     return time_sleep(t);
 379              		.loc 2 34 5
 380              		.loc 2 34 22 is_stmt 0
 381 01c0 97000000 		call	_Z10time_sleepm@plt
 381      E7800000 
 382              	.LVL25:
  35:src/Thread.cpp **** }
 383              		.loc 2 35 1
 384 01c8 83308100 		ld	ra,8(sp)
 385              		.cfi_restore 1
 386 01cc 03340100 		ld	s0,0(sp)
 387              		.cfi_restore 8
 388              		.cfi_def_cfa 2, 16
 389 01d0 13010101 		addi	sp,sp,16
 390              		.cfi_def_cfa_offset 0
 391 01d4 67800000 		jr	ra
 392              		.cfi_endproc
 393              	.LFE48:
 395              		.weak	_ZTV6Thread
 396              		.section	.data.rel.ro.local._ZTV6Thread,"awG",@progbits,_ZTV6Thread,comdat
 397              		.align	3
 400              	_ZTV6Thread:
 401 0000 00000000 		.dword	0
 401      00000000 
 402 0008 00000000 		.dword	0
 402      00000000 
 403 0010 00000000 		.dword	_ZN6ThreadD1Ev
 403      00000000 
 404 0018 00000000 		.dword	_ZN6ThreadD0Ev
 404      00000000 
 405 0020 00000000 		.dword	_ZN6Thread3runEv
 405      00000000 
 406              		.text
 407              	.Letext0:
 408              		.file 4 "src/../h/../lib/hw.h"
 409              		.file 5 "src/../h/syscall_c.h"
 410              		.file 6 "src/../h/MemoryAllocator.hpp"
 3699              		.align	3
 3702              	DW.ref.__gxx_personality_v0:
 3703 0000 00000000 		.dword	__gxx_personality_v0
 3703      00000000 
 3704              		.ident	"GCC: (Ubuntu 9.4.0-1ubuntu1~20.04) 9.4.0"
 3705              		.section	.note.GNU-stack,"",@progbits
GAS LISTING /tmp/ccxk47PN.s 			page 11


DEFINED SYMBOLS
                            *ABS*:0000000000000000 Thread.cpp
     /tmp/ccxk47PN.s:10     .text._ZN6Thread3runEv:0000000000000000 _ZN6Thread3runEv
     /tmp/ccxk47PN.s:14     .text._ZN6Thread3runEv:0000000000000000 .L0 
     /tmp/ccxk47PN.s:16     .text._ZN6Thread3runEv:0000000000000000 .L0 
     /tmp/ccxk47PN.s:17     .text._ZN6Thread3runEv:0000000000000004 .L0 
     /tmp/ccxk47PN.s:19     .text._ZN6Thread3runEv:0000000000000008 .L0 
     /tmp/ccxk47PN.s:21     .text._ZN6Thread3runEv:000000000000000c .L0 
     /tmp/ccxk47PN.s:23     .text._ZN6Thread3runEv:000000000000000c .L0 
     /tmp/ccxk47PN.s:24     .text._ZN6Thread3runEv:0000000000000010 .L0 
     /tmp/ccxk47PN.s:25     .text._ZN6Thread3runEv:0000000000000010 .L0 
     /tmp/ccxk47PN.s:27     .text._ZN6Thread3runEv:0000000000000014 .L0 
     /tmp/ccxk47PN.s:29     .text._ZN6Thread3runEv:0000000000000018 .L0 
     /tmp/ccxk47PN.s:36     .text:0000000000000000 _ZN6Thread7wrapperEPv
     /tmp/ccxk47PN.s:40     .text:0000000000000000 .L0 
     /tmp/ccxk47PN.s:42     .text:0000000000000000 .L0 
     /tmp/ccxk47PN.s:43     .text:0000000000000000 .L0 
     /tmp/ccxk47PN.s:45     .text:0000000000000004 .L0 
     /tmp/ccxk47PN.s:46     .text:0000000000000008 .L0 
     /tmp/ccxk47PN.s:49     .text:0000000000000010 .L0 
     /tmp/ccxk47PN.s:50     .text:0000000000000010 .L0 
     /tmp/ccxk47PN.s:52     .text:0000000000000014 .L0 
     /tmp/ccxk47PN.s:54     .text:0000000000000014 .L0 
     /tmp/ccxk47PN.s:55     .text:0000000000000014 .L0 
     /tmp/ccxk47PN.s:58     .text:000000000000001c .L0 
     /tmp/ccxk47PN.s:61     .text:0000000000000020 .L0 
     /tmp/ccxk47PN.s:62     .text:0000000000000024 .L0 
     /tmp/ccxk47PN.s:64     .text:0000000000000028 .L0 
     /tmp/ccxk47PN.s:65     .text:0000000000000028 .L0 
     /tmp/ccxk47PN.s:67     .text:000000000000002c .L0 
     /tmp/ccxk47PN.s:72     .text:0000000000000034 .L0 
     /tmp/ccxk47PN.s:78     .text:0000000000000034 _ZN6ThreadD2Ev
     /tmp/ccxk47PN.s:81     .text:0000000000000034 .L0 
     /tmp/ccxk47PN.s:3702   .data.rel.local.DW.ref.__gxx_personality_v0:0000000000000000 DW.ref.__gxx_personality_v0
     /tmp/ccxk47PN.s:85     .text:0000000000000034 .L0 
     /tmp/ccxk47PN.s:86     .text:0000000000000038 .L0 
     /tmp/ccxk47PN.s:90     .text:0000000000000044 .L0 
     /tmp/ccxk47PN.s:91     .text:0000000000000044 .L0 
     /tmp/ccxk47PN.s:92     .text:0000000000000044 .L0 
     /tmp/ccxk47PN.s:94     .text:0000000000000048 .L0 
     /tmp/ccxk47PN.s:400    .data.rel.ro.local._ZTV6Thread:0000000000000000 _ZTV6Thread
     /tmp/ccxk47PN.s:97     .text:0000000000000048 .L0 
     /tmp/ccxk47PN.s:100    .text:0000000000000054 .L0 
     /tmp/ccxk47PN.s:101    .text:0000000000000054 .L0 
     /tmp/ccxk47PN.s:103    .text:0000000000000058 .L0 
     /tmp/ccxk47PN.s:109    .text:000000000000005c .L0 
     /tmp/ccxk47PN.s:110    .text:000000000000005c .L0 
     /tmp/ccxk47PN.s:113    .text:0000000000000060 .L0 
     /tmp/ccxk47PN.s:115    .text:0000000000000064 .L0 
     /tmp/ccxk47PN.s:116    .text:0000000000000064 .L0 
     /tmp/ccxk47PN.s:120    .text:000000000000006c .L0 
     /tmp/ccxk47PN.s:121    .text:000000000000006c .L0 
     /tmp/ccxk47PN.s:123    .text:0000000000000070 .L0 
     /tmp/ccxk47PN.s:125    .text:0000000000000074 .L0 
     /tmp/ccxk47PN.s:126    .text:0000000000000074 .L0 
     /tmp/ccxk47PN.s:130    .text:000000000000007c .L0 
     /tmp/ccxk47PN.s:131    .text:000000000000007c .L0 
GAS LISTING /tmp/ccxk47PN.s 			page 12


     /tmp/ccxk47PN.s:132    .text:000000000000007c .L0 
     /tmp/ccxk47PN.s:133    .text:000000000000007c .L0 
     /tmp/ccxk47PN.s:134    .text:000000000000007c .L0 
     /tmp/ccxk47PN.s:135    .text:000000000000007c .L0 
     /tmp/ccxk47PN.s:140    .text:000000000000007c .L0 
     /tmp/ccxk47PN.s:141    .text:000000000000007c .L0 
     /tmp/ccxk47PN.s:142    .text:000000000000007c .L0 
     /tmp/ccxk47PN.s:150    .text:0000000000000088 .L0 
     /tmp/ccxk47PN.s:151    .text:000000000000008c .L0 
     /tmp/ccxk47PN.s:153    .text:0000000000000090 .L0 
     /tmp/ccxk47PN.s:154    .text:0000000000000090 .L0 
     /tmp/ccxk47PN.s:156    .text:0000000000000094 .L0 
     /tmp/ccxk47PN.s:158    .text:0000000000000098 .L0 
     /tmp/ccxk47PN.s:160    .text:000000000000009c .L0 
     /tmp/ccxk47PN.s:78     .text:0000000000000034 _ZN6ThreadD1Ev
     /tmp/ccxk47PN.s:176    .text:000000000000009c _ZN6ThreadD0Ev
     /tmp/ccxk47PN.s:179    .text:000000000000009c .L0 
     /tmp/ccxk47PN.s:181    .text:000000000000009c .L0 
     /tmp/ccxk47PN.s:182    .text:00000000000000a0 .L0 
     /tmp/ccxk47PN.s:186    .text:00000000000000ac .L0 
     /tmp/ccxk47PN.s:187    .text:00000000000000ac .L0 
     /tmp/ccxk47PN.s:188    .text:00000000000000ac .L0 
     /tmp/ccxk47PN.s:190    .text:00000000000000b0 .L0 
     /tmp/ccxk47PN.s:193    .text:00000000000000b4 .L0 
     /tmp/ccxk47PN.s:199    .text:00000000000000cc .L0 
     /tmp/ccxk47PN.s:201    .text:00000000000000d0 .L0 
     /tmp/ccxk47PN.s:202    .text:00000000000000d0 .L0 
     /tmp/ccxk47PN.s:204    .text:00000000000000d4 .L0 
     /tmp/ccxk47PN.s:207    .text:00000000000000d8 .L0 
     /tmp/ccxk47PN.s:209    .text:00000000000000dc .L0 
     /tmp/ccxk47PN.s:215    .text:00000000000000dc _ZN6ThreadC2EPFvPvES0_
     /tmp/ccxk47PN.s:218    .text:00000000000000dc .L0 
     /tmp/ccxk47PN.s:220    .text:00000000000000dc .L0 
     /tmp/ccxk47PN.s:221    .text:00000000000000e0 .L0 
     /tmp/ccxk47PN.s:224    .text:00000000000000e8 .L0 
     /tmp/ccxk47PN.s:225    .text:00000000000000e8 .L0 
     /tmp/ccxk47PN.s:227    .text:00000000000000ec .L0 
     /tmp/ccxk47PN.s:230    .text:00000000000000ec .L0 
     /tmp/ccxk47PN.s:233    .text:00000000000000f8 .L0 
     /tmp/ccxk47PN.s:234    .text:00000000000000f8 .L0 
     /tmp/ccxk47PN.s:240    .text:0000000000000104 .L0 
     /tmp/ccxk47PN.s:241    .text:0000000000000108 .L0 
     /tmp/ccxk47PN.s:243    .text:000000000000010c .L0 
     /tmp/ccxk47PN.s:244    .text:000000000000010c .L0 
     /tmp/ccxk47PN.s:246    .text:0000000000000110 .L0 
     /tmp/ccxk47PN.s:248    .text:0000000000000114 .L0 
     /tmp/ccxk47PN.s:215    .text:00000000000000dc _ZN6ThreadC1EPFvPvES0_
     /tmp/ccxk47PN.s:256    .text:0000000000000114 _ZN6ThreadC2Ev
     /tmp/ccxk47PN.s:259    .text:0000000000000114 .L0 
     /tmp/ccxk47PN.s:261    .text:0000000000000114 .L0 
     /tmp/ccxk47PN.s:262    .text:0000000000000118 .L0 
     /tmp/ccxk47PN.s:265    .text:0000000000000120 .L0 
     /tmp/ccxk47PN.s:266    .text:0000000000000120 .L0 
     /tmp/ccxk47PN.s:268    .text:0000000000000124 .L0 
     /tmp/ccxk47PN.s:271    .text:0000000000000124 .L0 
     /tmp/ccxk47PN.s:274    .text:0000000000000130 .L0 
     /tmp/ccxk47PN.s:275    .text:0000000000000130 .L0 
GAS LISTING /tmp/ccxk47PN.s 			page 13


     /tmp/ccxk47PN.s:283    .text:0000000000000148 .L0 
     /tmp/ccxk47PN.s:284    .text:000000000000014c .L0 
     /tmp/ccxk47PN.s:286    .text:0000000000000150 .L0 
     /tmp/ccxk47PN.s:287    .text:0000000000000150 .L0 
     /tmp/ccxk47PN.s:289    .text:0000000000000154 .L0 
     /tmp/ccxk47PN.s:291    .text:0000000000000158 .L0 
     /tmp/ccxk47PN.s:256    .text:0000000000000114 _ZN6ThreadC1Ev
     /tmp/ccxk47PN.s:299    .text:0000000000000158 _ZN6Thread5startEv
     /tmp/ccxk47PN.s:302    .text:0000000000000158 .L0 
     /tmp/ccxk47PN.s:304    .text:0000000000000158 .L0 
     /tmp/ccxk47PN.s:305    .text:000000000000015c .L0 
     /tmp/ccxk47PN.s:308    .text:0000000000000164 .L0 
     /tmp/ccxk47PN.s:309    .text:0000000000000164 .L0 
     /tmp/ccxk47PN.s:311    .text:0000000000000168 .L0 
     /tmp/ccxk47PN.s:313    .text:0000000000000168 .L0 
     /tmp/ccxk47PN.s:314    .text:0000000000000168 .L0 
     /tmp/ccxk47PN.s:319    .text:0000000000000174 .L0 
     /tmp/ccxk47PN.s:320    .text:0000000000000174 .L0 
     /tmp/ccxk47PN.s:322    .text:000000000000017c .L0 
     /tmp/ccxk47PN.s:324    .text:0000000000000180 .L0 
     /tmp/ccxk47PN.s:325    .text:0000000000000180 .L0 
     /tmp/ccxk47PN.s:327    .text:0000000000000184 .L0 
     /tmp/ccxk47PN.s:329    .text:0000000000000188 .L0 
     /tmp/ccxk47PN.s:335    .text:0000000000000188 _ZN6Thread8dispatchEv
     /tmp/ccxk47PN.s:338    .text:0000000000000188 .L0 
     /tmp/ccxk47PN.s:339    .text:0000000000000188 .L0 
     /tmp/ccxk47PN.s:340    .text:000000000000018c .L0 
     /tmp/ccxk47PN.s:343    .text:0000000000000194 .L0 
     /tmp/ccxk47PN.s:344    .text:0000000000000194 .L0 
     /tmp/ccxk47PN.s:346    .text:0000000000000198 .L0 
     /tmp/ccxk47PN.s:348    .text:0000000000000198 .L0 
     /tmp/ccxk47PN.s:349    .text:0000000000000198 .L0 
     /tmp/ccxk47PN.s:352    .text:00000000000001a0 .L0 
     /tmp/ccxk47PN.s:353    .text:00000000000001a4 .L0 
     /tmp/ccxk47PN.s:355    .text:00000000000001a8 .L0 
     /tmp/ccxk47PN.s:356    .text:00000000000001a8 .L0 
     /tmp/ccxk47PN.s:358    .text:00000000000001ac .L0 
     /tmp/ccxk47PN.s:360    .text:00000000000001b0 .L0 
     /tmp/ccxk47PN.s:366    .text:00000000000001b0 _ZN6Thread5sleepEm
     /tmp/ccxk47PN.s:369    .text:00000000000001b0 .L0 
     /tmp/ccxk47PN.s:371    .text:00000000000001b0 .L0 
     /tmp/ccxk47PN.s:372    .text:00000000000001b4 .L0 
     /tmp/ccxk47PN.s:375    .text:00000000000001bc .L0 
     /tmp/ccxk47PN.s:376    .text:00000000000001bc .L0 
     /tmp/ccxk47PN.s:378    .text:00000000000001c0 .L0 
     /tmp/ccxk47PN.s:380    .text:00000000000001c0 .L0 
     /tmp/ccxk47PN.s:381    .text:00000000000001c0 .L0 
     /tmp/ccxk47PN.s:384    .text:00000000000001c8 .L0 
     /tmp/ccxk47PN.s:385    .text:00000000000001cc .L0 
     /tmp/ccxk47PN.s:387    .text:00000000000001d0 .L0 
     /tmp/ccxk47PN.s:388    .text:00000000000001d0 .L0 
     /tmp/ccxk47PN.s:390    .text:00000000000001d4 .L0 
     /tmp/ccxk47PN.s:392    .text:00000000000001d8 .L0 
     /tmp/ccxk47PN.s:32     .text._ZN6Thread3runEv:0000000000000018 .L0 
     /tmp/ccxk47PN.s:411    .text:00000000000001d8 .L0 
     /tmp/ccxk47PN.s:97     .text:0000000000000048 .L0 
     /tmp/ccxk47PN.s:230    .text:00000000000000ec .L0 
GAS LISTING /tmp/ccxk47PN.s 			page 14


     /tmp/ccxk47PN.s:271    .text:0000000000000124 .L0 
     /tmp/ccxk47PN.s:276    .text:0000000000000134 .L0 
     /tmp/ccxk47PN.s:70     .text:0000000000000030 .L6
     /tmp/ccxk47PN.s:145    .text:0000000000000088 .L9
     /tmp/ccxk47PN.s:118    .text:000000000000006c .L11
     /tmp/ccxk47PN.s:128    .text:000000000000007c .L12
     /tmp/ccxk47PN.s:2035   .debug_abbrev:0000000000000000 .Ldebug_abbrev0
     /tmp/ccxk47PN.s:3638   .debug_str:000000000000076c .LASF136
     /tmp/ccxk47PN.s:3576   .debug_str:0000000000000565 .LASF137
     /tmp/ccxk47PN.s:3506   .debug_str:0000000000000313 .LASF138
     /tmp/ccxk47PN.s:3384   .debug_ranges:0000000000000000 .Ldebug_ranges0
     /tmp/ccxk47PN.s:3392   .debug_line:0000000000000000 .Ldebug_line0
     /tmp/ccxk47PN.s:3502   .debug_str:00000000000002fc .LASF0
     /tmp/ccxk47PN.s:3520   .debug_str:00000000000003ad .LASF1
     /tmp/ccxk47PN.s:3586   .debug_str:00000000000005c1 .LASF2
     /tmp/ccxk47PN.s:3598   .debug_str:0000000000000646 .LASF4
     /tmp/ccxk47PN.s:3510   .debug_str:000000000000035b .LASF3
     /tmp/ccxk47PN.s:3408   .debug_str:0000000000000080 .LASF5
     /tmp/ccxk47PN.s:3568   .debug_str:0000000000000530 .LASF6
     /tmp/ccxk47PN.s:3564   .debug_str:000000000000050d .LASF7
     /tmp/ccxk47PN.s:3514   .debug_str:0000000000000389 .LASF8
     /tmp/ccxk47PN.s:3484   .debug_str:0000000000000264 .LASF9
     /tmp/ccxk47PN.s:3490   .debug_str:00000000000002af .LASF10
     /tmp/ccxk47PN.s:3440   .debug_str:000000000000015b .LASF11
     /tmp/ccxk47PN.s:3474   .debug_str:0000000000000233 .LASF12
     /tmp/ccxk47PN.s:3446   .debug_str:0000000000000182 .LASF13
     /tmp/ccxk47PN.s:3438   .debug_str:000000000000014b .LASF14
     /tmp/ccxk47PN.s:3620   .debug_str:000000000000070f .LASF15
     /tmp/ccxk47PN.s:3464   .debug_str:00000000000001e4 .LASF16
     /tmp/ccxk47PN.s:3614   .debug_str:00000000000006d5 .LASF17
     /tmp/ccxk47PN.s:3660   .debug_str:00000000000008d0 .LASF18
     /tmp/ccxk47PN.s:3624   .debug_str:0000000000000724 .LASF74
     /tmp/ccxk47PN.s:3640   .debug_str:0000000000000830 .LASF19
     /tmp/ccxk47PN.s:3668   .debug_str:00000000000008f2 .LASF20
     /tmp/ccxk47PN.s:3552   .debug_str:00000000000004c1 .LASF21
     /tmp/ccxk47PN.s:3546   .debug_str:0000000000000492 .LASF76
     /tmp/ccxk47PN.s:3600   .debug_str:000000000000064d .LASF22
     /tmp/ccxk47PN.s:3404   .debug_str:000000000000006a .LASF24
     /tmp/ccxk47PN.s:3396   .debug_str:0000000000000021 .LASF26
     /tmp/ccxk47PN.s:3578   .debug_str:0000000000000574 .LASF28
     /tmp/ccxk47PN.s:3618   .debug_str:0000000000000702 .LASF23
     /tmp/ccxk47PN.s:3584   .debug_str:000000000000059d .LASF25
     /tmp/ccxk47PN.s:3558   .debug_str:00000000000004e2 .LASF93
     /tmp/ccxk47PN.s:3626   .debug_str:000000000000072c .LASF32
     /tmp/ccxk47PN.s:3544   .debug_str:000000000000047b .LASF34
     /tmp/ccxk47PN.s:3458   .debug_str:00000000000001c8 .LASF27
     /tmp/ccxk47PN.s:3594   .debug_str:000000000000060f .LASF29
     /tmp/ccxk47PN.s:3428   .debug_str:0000000000000108 .LASF30
     /tmp/ccxk47PN.s:3654   .debug_str:0000000000000898 .LASF31
     /tmp/ccxk47PN.s:3522   .debug_str:00000000000003c0 .LASF46
     /tmp/ccxk47PN.s:3642   .debug_str:0000000000000835 .LASF48
     /tmp/ccxk47PN.s:3526   .debug_str:00000000000003d9 .LASF33
     /tmp/ccxk47PN.s:3656   .debug_str:00000000000008af .LASF35
     /tmp/ccxk47PN.s:3476   .debug_str:0000000000000242 .LASF139
     /tmp/ccxk47PN.s:3472   .debug_str:000000000000021c .LASF140
     /tmp/ccxk47PN.s:3454   .debug_str:00000000000001b2 .LASF36
     /tmp/ccxk47PN.s:3596   .debug_str:000000000000062e .LASF37
GAS LISTING /tmp/ccxk47PN.s 			page 15


     /tmp/ccxk47PN.s:3636   .debug_str:0000000000000764 .LASF52
     /tmp/ccxk47PN.s:3684   .debug_str:000000000000094f .LASF38
     /tmp/ccxk47PN.s:3488   .debug_str:00000000000002a3 .LASF39
     /tmp/ccxk47PN.s:3434   .debug_str:0000000000000134 .LASF40
     /tmp/ccxk47PN.s:3482   .debug_str:0000000000000258 .LASF41
     /tmp/ccxk47PN.s:3400   .debug_str:0000000000000032 .LASF42
     /tmp/ccxk47PN.s:3536   .debug_str:000000000000042c .LASF43
     /tmp/ccxk47PN.s:3612   .debug_str:00000000000006c2 .LASF44
     /tmp/ccxk47PN.s:3588   .debug_str:00000000000005cf .LASF45
     /tmp/ccxk47PN.s:3452   .debug_str:00000000000001ab .LASF47
     /tmp/ccxk47PN.s:3534   .debug_str:000000000000041b .LASF49
     /tmp/ccxk47PN.s:3690   .debug_str:0000000000000994 .LASF50
     /tmp/ccxk47PN.s:3554   .debug_str:00000000000004c7 .LASF51
     /tmp/ccxk47PN.s:3478   .debug_str:000000000000024e .LASF53
     /tmp/ccxk47PN.s:3462   .debug_str:00000000000001db .LASF54
     /tmp/ccxk47PN.s:3422   .debug_str:00000000000000e6 .LASF55
     /tmp/ccxk47PN.s:3604   .debug_str:0000000000000663 .LASF56
     /tmp/ccxk47PN.s:3592   .debug_str:00000000000005e8 .LASF57
     /tmp/ccxk47PN.s:3492   .debug_str:00000000000002bd .LASF58
     /tmp/ccxk47PN.s:3648   .debug_str:0000000000000866 .LASF59
     /tmp/ccxk47PN.s:3590   .debug_str:00000000000005dc .LASF60
     /tmp/ccxk47PN.s:3508   .debug_str:0000000000000338 .LASF61
     /tmp/ccxk47PN.s:3666   .debug_str:00000000000008e9 .LASF62
     /tmp/ccxk47PN.s:3530   .debug_str:00000000000003ff .LASF63
     /tmp/ccxk47PN.s:3688   .debug_str:000000000000097b .LASF64
     /tmp/ccxk47PN.s:3632   .debug_str:0000000000000742 .LASF65
     /tmp/ccxk47PN.s:3494   .debug_str:00000000000002c8 .LASF66
     /tmp/ccxk47PN.s:3650   .debug_str:000000000000088b .LASF67
     /tmp/ccxk47PN.s:3398   .debug_str:000000000000002d .LASF68
     /tmp/ccxk47PN.s:3680   .debug_str:000000000000092d .LASF69
     /tmp/ccxk47PN.s:3466   .debug_str:00000000000001fa .LASF70
     /tmp/ccxk47PN.s:3646   .debug_str:000000000000085c .LASF71
     /tmp/ccxk47PN.s:3622   .debug_str:000000000000071b .LASF72
     /tmp/ccxk47PN.s:3602   .debug_str:0000000000000652 .LASF73
     /tmp/ccxk47PN.s:3450   .debug_str:000000000000019d .LASF75
     /tmp/ccxk47PN.s:3402   .debug_str:0000000000000042 .LASF77
     /tmp/ccxk47PN.s:3456   .debug_str:00000000000001bf .LASF78
     /tmp/ccxk47PN.s:3444   .debug_str:000000000000016f .LASF80
     /tmp/ccxk47PN.s:3678   .debug_str:0000000000000921 .LASF141
     /tmp/ccxk47PN.s:3616   .debug_str:00000000000006eb .LASF142
     /tmp/ccxk47PN.s:3432   .debug_str:0000000000000126 .LASF79
     /tmp/ccxk47PN.s:3528   .debug_str:00000000000003e6 .LASF81
     /tmp/ccxk47PN.s:3562   .debug_str:00000000000004fd .LASF82
     /tmp/ccxk47PN.s:3674   .debug_str:0000000000000914 .LASF143
     /tmp/ccxk47PN.s:3460   .debug_str:00000000000001d6 .LASF83
     /tmp/ccxk47PN.s:3628   .debug_str:0000000000000737 .LASF84
     /tmp/ccxk47PN.s:3672   .debug_str:000000000000090b .LASF85
     /tmp/ccxk47PN.s:3538   .debug_str:0000000000000439 .LASF86
     /tmp/ccxk47PN.s:3420   .debug_str:00000000000000e1 .LASF87
     /tmp/ccxk47PN.s:3442   .debug_str:000000000000016a .LASF88
     /tmp/ccxk47PN.s:3410   .debug_str:0000000000000087 .LASF89
     /tmp/ccxk47PN.s:3518   .debug_str:00000000000003a8 .LASF90
     /tmp/ccxk47PN.s:3498   .debug_str:00000000000002e5 .LASF91
     /tmp/ccxk47PN.s:3608   .debug_str:000000000000068b .LASF92
     /tmp/ccxk47PN.s:3436   .debug_str:0000000000000144 .LASF94
     /tmp/ccxk47PN.s:3486   .debug_str:0000000000000274 .LASF95
     /tmp/ccxk47PN.s:3504   .debug_str:0000000000000309 .LASF96
GAS LISTING /tmp/ccxk47PN.s 			page 16


     /tmp/ccxk47PN.s:3540   .debug_str:0000000000000443 .LASF97
     /tmp/ccxk47PN.s:3664   .debug_str:00000000000008e0 .LASF98
     /tmp/ccxk47PN.s:3394   .debug_str:0000000000000000 .LASF99
     /tmp/ccxk47PN.s:3542   .debug_str:0000000000000471 .LASF100
     /tmp/ccxk47PN.s:3412   .debug_str:000000000000008c .LASF101
     /tmp/ccxk47PN.s:3424   .debug_str:00000000000000fa .LASF102
     /tmp/ccxk47PN.s:3682   .debug_str:0000000000000933 .LASF103
     /tmp/ccxk47PN.s:3652   .debug_str:0000000000000893 .LASF104
     /tmp/ccxk47PN.s:3496   .debug_str:00000000000002df .LASF105
     /tmp/ccxk47PN.s:3416   .debug_str:00000000000000c2 .LASF106
     /tmp/ccxk47PN.s:3512   .debug_str:000000000000036d .LASF107
     /tmp/ccxk47PN.s:3606   .debug_str:0000000000000670 .LASF108
     /tmp/ccxk47PN.s:3630   .debug_str:000000000000073d .LASF109
     /tmp/ccxk47PN.s:3580   .debug_str:000000000000058b .LASF110
     /tmp/ccxk47PN.s:3662   .debug_str:00000000000008d9 .LASF111
     /tmp/ccxk47PN.s:3430   .debug_str:0000000000000114 .LASF144
     /tmp/ccxk47PN.s:3582   .debug_str:0000000000000590 .LASF145
     /tmp/ccxk47PN.s:3694   .debug_str:00000000000009ad .LASF112
     /tmp/ccxk47PN.s:3610   .debug_str:00000000000006ba .LASF146
     /tmp/ccxk47PN.s:3470   .debug_str:000000000000020d .LASF147
     /tmp/ccxk47PN.s:3676   .debug_str:000000000000091b .LASF113
     /tmp/ccxk47PN.s:3524   .debug_str:00000000000003c6 .LASF114
     /tmp/ccxk47PN.s:3560   .debug_str:00000000000004e7 .LASF115
     /tmp/ccxk47PN.s:3418   .debug_str:00000000000000db .LASF116
     /tmp/ccxk47PN.s:3548   .debug_str:00000000000004a7 .LASF117
     /tmp/ccxk47PN.s:3658   .debug_str:00000000000008c8 .LASF118
     /tmp/ccxk47PN.s:3634   .debug_str:000000000000074e .LASF119
     /tmp/ccxk47PN.s:3692   .debug_str:000000000000099e .LASF120
     /tmp/ccxk47PN.s:3670   .debug_str:00000000000008fa .LASF148
     /tmp/ccxk47PN.s:3426   .debug_str:00000000000000ff .LASF121
     /tmp/ccxk47PN.s:3500   .debug_str:00000000000002ec .LASF149
     /tmp/ccxk47PN.s:367    .text:00000000000001b0 .LFB48
     /tmp/ccxk47PN.s:393    .text:00000000000001d8 .LFE48
     /tmp/ccxk47PN.s:3211   .debug_loc:0000000000000000 .LLST10
     /tmp/ccxk47PN.s:382    .text:00000000000001c8 .LVL25
     /tmp/ccxk47PN.s:3480   .debug_str:0000000000000253 .LASF122
     /tmp/ccxk47PN.s:3406   .debug_str:0000000000000076 .LASF123
     /tmp/ccxk47PN.s:3532   .debug_str:000000000000040c .LASF124
     /tmp/ccxk47PN.s:177    .text:000000000000009c .LFB47
     /tmp/ccxk47PN.s:210    .text:00000000000000dc .LFE47
     /tmp/ccxk47PN.s:3225   .debug_loc:0000000000000039 .LLST4
     /tmp/ccxk47PN.s:194    .text:00000000000000bc .LVL11
     /tmp/ccxk47PN.s:197    .text:00000000000000c8 .LVL12
     /tmp/ccxk47PN.s:3572   .debug_str:0000000000000546 .LASF125
     /tmp/ccxk47PN.s:79     .text:0000000000000034 .LFB45
     /tmp/ccxk47PN.s:161    .text:000000000000009c .LFE45
     /tmp/ccxk47PN.s:3243   .debug_loc:0000000000000085 .LLST1
     /tmp/ccxk47PN.s:105    .text:000000000000005c .LBB12
     /tmp/ccxk47PN.s:137    .text:000000000000007c .LBE12
     /tmp/ccxk47PN.s:3257   .debug_loc:00000000000000be .LLST2
     /tmp/ccxk47PN.s:117    .text:000000000000006c .LVL7
     /tmp/ccxk47PN.s:127    .text:000000000000007c .LVL8
     /tmp/ccxk47PN.s:138    .text:000000000000007c .LBB14
     /tmp/ccxk47PN.s:147    .text:0000000000000088 .LBE14
     /tmp/ccxk47PN.s:3264   .debug_loc:00000000000000e1 .LLST3
     /tmp/ccxk47PN.s:144    .text:0000000000000088 .LVL9
     /tmp/ccxk47PN.s:336    .text:0000000000000188 .LFB43
GAS LISTING /tmp/ccxk47PN.s 			page 17


     /tmp/ccxk47PN.s:361    .text:00000000000001b0 .LFE43
     /tmp/ccxk47PN.s:350    .text:00000000000001a0 .LVL23
     /tmp/ccxk47PN.s:300    .text:0000000000000158 .LFB42
     /tmp/ccxk47PN.s:330    .text:0000000000000188 .LFE42
     /tmp/ccxk47PN.s:3271   .debug_loc:0000000000000104 .LLST9
     /tmp/ccxk47PN.s:317    .text:0000000000000174 .LVL22
     /tmp/ccxk47PN.s:37     .text:0000000000000000 .LFB41
     /tmp/ccxk47PN.s:73     .text:0000000000000034 .LFE41
     /tmp/ccxk47PN.s:3285   .debug_loc:000000000000013d .LLST0
     /tmp/ccxk47PN.s:59     .text:0000000000000020 .LVL2
     /tmp/ccxk47PN.s:3570   .debug_str:0000000000000537 .LASF126
     /tmp/ccxk47PN.s:257    .text:0000000000000114 .LFB39
     /tmp/ccxk47PN.s:292    .text:0000000000000158 .LFE39
     /tmp/ccxk47PN.s:3303   .debug_loc:0000000000000189 .LLST8
     /tmp/ccxk47PN.s:280    .text:0000000000000148 .LVL19
     /tmp/ccxk47PN.s:3644   .debug_str:0000000000000845 .LASF127
     /tmp/ccxk47PN.s:216    .text:00000000000000dc .LFB36
     /tmp/ccxk47PN.s:249    .text:0000000000000114 .LFE36
     /tmp/ccxk47PN.s:3321   .debug_loc:00000000000001d5 .LLST5
     /tmp/ccxk47PN.s:3341   .debug_loc:0000000000000223 .LLST6
     /tmp/ccxk47PN.s:3355   .debug_loc:000000000000025c .LLST7
     /tmp/ccxk47PN.s:237    .text:0000000000000104 .LVL16
     /tmp/ccxk47PN.s:11     .text._ZN6Thread3runEv:0000000000000000 .LFB33
     /tmp/ccxk47PN.s:30     .text._ZN6Thread3runEv:0000000000000018 .LFE33
     /tmp/ccxk47PN.s:3516   .debug_str:000000000000039c .LASF150
     /tmp/ccxk47PN.s:3566   .debug_str:0000000000000520 .LASF130
     /tmp/ccxk47PN.s:3448   .debug_str:0000000000000192 .LASF132
     /tmp/ccxk47PN.s:3556   .debug_str:00000000000004db .LASF128
     /tmp/ccxk47PN.s:3550   .debug_str:00000000000004ba .LASF129
     /tmp/ccxk47PN.s:3414   .debug_str:00000000000000ad .LASF131
     /tmp/ccxk47PN.s:3574   .debug_str:0000000000000555 .LASF133
     /tmp/ccxk47PN.s:3686   .debug_str:000000000000095c .LASF134
     /tmp/ccxk47PN.s:3468   .debug_str:0000000000000201 .LASF135
     /tmp/ccxk47PN.s:370    .text:00000000000001b0 .LVL24
     /tmp/ccxk47PN.s:180    .text:000000000000009c .LVL10
     /tmp/ccxk47PN.s:205    .text:00000000000000d4 .LVL13
     /tmp/ccxk47PN.s:84     .text:0000000000000034 .LVL4
     /tmp/ccxk47PN.s:111    .text:0000000000000060 .LVL6
     /tmp/ccxk47PN.s:104    .text:000000000000005c .LVL5
     /tmp/ccxk47PN.s:303    .text:0000000000000158 .LVL20
     /tmp/ccxk47PN.s:315    .text:000000000000016c .LVL21
     /tmp/ccxk47PN.s:41     .text:0000000000000000 .LVL1
     /tmp/ccxk47PN.s:69     .text:0000000000000030 .LVL3
     /tmp/ccxk47PN.s:260    .text:0000000000000114 .LVL17
     /tmp/ccxk47PN.s:278    .text:0000000000000140 .LVL18
     /tmp/ccxk47PN.s:219    .text:00000000000000dc .LVL14
     /tmp/ccxk47PN.s:235    .text:00000000000000fc .LVL15
     /tmp/ccxk47PN.s:412    .debug_info:0000000000000000 .Ldebug_info0
     /tmp/ccxk47PN.s:5      .text:0000000000000000 .Ltext0
     /tmp/ccxk47PN.s:407    .text:00000000000001d8 .Letext0
     /tmp/ccxk47PN.s:164    .gcc_except_table:0000000000000000 .LLSDA45

UNDEFINED SYMBOLS
_ZdaPv
_ZN15MemoryAllocator8mem_freeEPv
__gxx_personality_v0
_ZdlPv
GAS LISTING /tmp/ccxk47PN.s 			page 18


_Z11thread_makePP3TCBPFvPvES2_
_ZN3TCB11startThreadEv
_Z15thread_dispatchv
_Z10time_sleepm
