GAS LISTING /tmp/cc2FwB51.s 			page 1


   1              		.file	"TimeSleep.cpp"
   2              		.option pic
   3              		.option norelax
   4              		.text
   5              	.Ltext0:
   6              		.align	2
   7              		.globl	_ZN9TimeSleep8releasedEv
   9              	_ZN9TimeSleep8releasedEv:
  10              	.LFB30:
  11              		.file 1 "src/TimeSleep.cpp"
   1:src/TimeSleep.cpp **** //
   2:src/TimeSleep.cpp **** // Created by os on 8/21/22.
   3:src/TimeSleep.cpp **** //
   4:src/TimeSleep.cpp **** 
   5:src/TimeSleep.cpp **** #include "../h/TimeSleep.hpp"
   6:src/TimeSleep.cpp **** 
   7:src/TimeSleep.cpp **** void TimeSleep::released() {
  12              		.loc 1 7 28
  13              		.cfi_startproc
  14              	.LVL0:
  15 0000 130101FD 		addi	sp,sp,-48
  16              		.cfi_def_cfa_offset 48
  17 0004 23341102 		sd	ra,40(sp)
  18 0008 23308102 		sd	s0,32(sp)
  19 000c 233C9100 		sd	s1,24(sp)
  20 0010 23382101 		sd	s2,16(sp)
  21 0014 23343101 		sd	s3,8(sp)
  22 0018 23304101 		sd	s4,0(sp)
  23              		.cfi_offset 1, -8
  24              		.cfi_offset 8, -16
  25              		.cfi_offset 9, -24
  26              		.cfi_offset 18, -32
  27              		.cfi_offset 19, -40
  28              		.cfi_offset 20, -48
  29 001c 13040103 		addi	s0,sp,48
  30              		.cfi_def_cfa 8, 0
  31 0020 93090500 		mv	s3,a0
   8:src/TimeSleep.cpp ****     TCB* thread;
  32              		.loc 1 8 5
   9:src/TimeSleep.cpp ****     sub();
  33              		.loc 1 9 5
  34              	.LVL1:
  35              		.file 2 "src/../h/TimeSleep.hpp"
   1:src/../h/TimeSleep.hpp **** //
   2:src/../h/TimeSleep.hpp **** // Created by os on 8/21/22.
   3:src/../h/TimeSleep.hpp **** //
   4:src/../h/TimeSleep.hpp **** 
   5:src/../h/TimeSleep.hpp **** #ifndef PROJECT_BASE_V1_1_TIMESLEEP_HPP
   6:src/../h/TimeSleep.hpp **** #define PROJECT_BASE_V1_1_TIMESLEEP_HPP
   7:src/../h/TimeSleep.hpp **** #include "list.hpp"
   8:src/../h/TimeSleep.hpp **** #include "scheduler.hpp"
   9:src/../h/TimeSleep.hpp **** class TCB;
  10:src/../h/TimeSleep.hpp **** class TimeSleep {
  11:src/../h/TimeSleep.hpp **** private:
  12:src/../h/TimeSleep.hpp ****     TimeSleep(){}
  13:src/../h/TimeSleep.hpp ****     struct Elem{
  14:src/../h/TimeSleep.hpp ****         TCB* data;
GAS LISTING /tmp/cc2FwB51.s 			page 2


  15:src/../h/TimeSleep.hpp ****         Elem* next;
  16:src/../h/TimeSleep.hpp ****         time_t time;
  17:src/../h/TimeSleep.hpp ****         Elem(TCB* data, Elem* next): data(data), next(next),time(0){}
  18:src/../h/TimeSleep.hpp ****     };
  19:src/../h/TimeSleep.hpp ****     Elem* head,*tail;
  20:src/../h/TimeSleep.hpp ****     int size;
  21:src/../h/TimeSleep.hpp ****     void addTime(TCB* data,time_t t) {
  22:src/../h/TimeSleep.hpp ****         Elem *elem = (Elem *) MemoryAllocator::mem_alloc(sizeof(Elem) + sizeof(MemoryAllocator::Mem
  23:src/../h/TimeSleep.hpp ****         elem->data = data;
  24:src/../h/TimeSleep.hpp ****         elem->time = t;
  25:src/../h/TimeSleep.hpp ****         elem->next = nullptr;
  26:src/../h/TimeSleep.hpp ****         size++;
  27:src/../h/TimeSleep.hpp ****         if (tail) {
  28:src/../h/TimeSleep.hpp ****             tail->next = elem;
  29:src/../h/TimeSleep.hpp ****             tail = elem;
  30:src/../h/TimeSleep.hpp ****         } else {
  31:src/../h/TimeSleep.hpp ****             head = tail = elem;
  32:src/../h/TimeSleep.hpp ****         }
  33:src/../h/TimeSleep.hpp ****     }
  34:src/../h/TimeSleep.hpp ****     void sub(){
  35:src/../h/TimeSleep.hpp ****         for(Elem* cur=head;cur!=nullptr;cur=cur->next) if(cur->time>0) cur->time=cur->time-1;
  36              		.loc 2 35 9
  37              	.LBB14:
  38              	.LBB15:
  39              		.loc 2 35 19 is_stmt 0
  40 0024 03390500 		ld	s2,0(a0)
  41              	.LVL2:
  42 0028 6F008000 		j	.L4
  43              	.L3:
  44              		.loc 2 35 9 is_stmt 1
  45              		.loc 2 35 44 is_stmt 0
  46 002c 03398900 		ld	s2,8(s2)
  47              	.LVL3:
  48              	.L4:
  49              		.loc 2 35 31 is_stmt 1
  50 0030 63040906 		beqz	s2,.L2
  51              		.loc 2 35 56
  52              		.loc 2 35 64 is_stmt 0
  53 0034 83370901 		ld	a5,16(s2)
  54              		.loc 2 35 56
  55 0038 E38A07FE 		beqz	a5,.L3
  56              		.loc 2 35 72 is_stmt 1
  57              		.loc 2 35 91 is_stmt 0
  58 003c 9387F7FF 		addi	a5,a5,-1
  59              		.loc 2 35 81
  60 0040 2338F900 		sd	a5,16(s2)
  61 0044 6FF09FFE 		j	.L3
  62              	.LVL4:
  63              	.L15:
  64              	.LBE15:
  65              	.LBE14:
  66              	.LBB16:
  67              	.LBB17:
  68              	.LBB18:
  36:src/../h/TimeSleep.hpp ****     }
  37:src/../h/TimeSleep.hpp ****     TCB* remove(Elem* prev,Elem* cur){
  38:src/../h/TimeSleep.hpp ****         size--;
GAS LISTING /tmp/cc2FwB51.s 			page 3


  39:src/../h/TimeSleep.hpp ****         if(cur==head){
  40:src/../h/TimeSleep.hpp **** 
  41:src/../h/TimeSleep.hpp ****             head=head->next;
  42:src/../h/TimeSleep.hpp ****             if(!head) tail=nullptr;
  43:src/../h/TimeSleep.hpp ****         }
  44:src/../h/TimeSleep.hpp ****         else if(cur==tail){
  45:src/../h/TimeSleep.hpp ****             prev->next=nullptr;
  46:src/../h/TimeSleep.hpp ****             tail=prev;
  47:src/../h/TimeSleep.hpp ****         }
  48:src/../h/TimeSleep.hpp ****         else{
  49:src/../h/TimeSleep.hpp ****             prev->next=cur->next;
  50:src/../h/TimeSleep.hpp ****         }
  51:src/../h/TimeSleep.hpp ****         TCB* ret=cur->data;
  52:src/../h/TimeSleep.hpp ****         MemoryAllocator::mem_free(cur);
  53:src/../h/TimeSleep.hpp ****         return ret;
  54:src/../h/TimeSleep.hpp ****     }
  55:src/../h/TimeSleep.hpp ****     TCB* release(){
  56:src/../h/TimeSleep.hpp ****         for(Elem* cur=head,*prev=0;cur!=nullptr;prev=cur,cur=cur->next){
  57:src/../h/TimeSleep.hpp ****             if(cur->time<=0)
  58:src/../h/TimeSleep.hpp ****                 return remove(prev,cur);
  69              		.loc 2 58 17 is_stmt 1
  70              	.LBB19:
  71              	.LBB20:
  38:src/../h/TimeSleep.hpp ****         if(cur==head){
  72              		.loc 2 38 9
  73 0048 03A70901 		lw	a4,16(s3)
  38:src/../h/TimeSleep.hpp ****         if(cur==head){
  74              		.loc 2 38 13 is_stmt 0
  75 004c 1B07F7FF 		addiw	a4,a4,-1
  76 0050 23A8E900 		sw	a4,16(s3)
  39:src/../h/TimeSleep.hpp **** 
  77              		.loc 2 39 9 is_stmt 1
  39:src/../h/TimeSleep.hpp **** 
  78              		.loc 2 39 17 is_stmt 0
  79 0054 03B70900 		ld	a4,0(s3)
  39:src/../h/TimeSleep.hpp **** 
  80              		.loc 2 39 9
  81 0058 6380E406 		beq	s1,a4,.L13
  44:src/../h/TimeSleep.hpp ****             prev->next=nullptr;
  82              		.loc 2 44 14 is_stmt 1
  44:src/../h/TimeSleep.hpp ****             prev->next=nullptr;
  83              		.loc 2 44 22 is_stmt 0
  84 005c 03B78900 		ld	a4,8(s3)
  44:src/../h/TimeSleep.hpp ****             prev->next=nullptr;
  85              		.loc 2 44 14
  86 0060 6386E406 		beq	s1,a4,.L14
  49:src/../h/TimeSleep.hpp ****         }
  87              		.loc 2 49 13 is_stmt 1
  49:src/../h/TimeSleep.hpp ****         }
  88              		.loc 2 49 29 is_stmt 0
  89 0064 03B78400 		ld	a4,8(s1)
  49:src/../h/TimeSleep.hpp ****         }
  90              		.loc 2 49 23
  91 0068 23B4E700 		sd	a4,8(a5)
  92              	.LVL5:
  93              	.L8:
  51:src/../h/TimeSleep.hpp ****         MemoryAllocator::mem_free(cur);
GAS LISTING /tmp/cc2FwB51.s 			page 4


  94              		.loc 2 51 9 is_stmt 1
  51:src/../h/TimeSleep.hpp ****         MemoryAllocator::mem_free(cur);
  95              		.loc 2 51 14 is_stmt 0
  96 006c 03BA0400 		ld	s4,0(s1)
  97              	.LVL6:
  52:src/../h/TimeSleep.hpp ****         return ret;
  98              		.loc 2 52 9 is_stmt 1
  52:src/../h/TimeSleep.hpp ****         return ret;
  99              		.loc 2 52 34 is_stmt 0
 100 0070 13850400 		mv	a0,s1
 101 0074 97000000 		call	_ZN15MemoryAllocator8mem_freeEPv@plt
 101      E7800000 
 102              	.LVL7:
  53:src/../h/TimeSleep.hpp ****     }
 103              		.loc 2 53 9 is_stmt 1
 104              	.LBE20:
 105              	.LBE19:
 106              		.loc 2 58 30 is_stmt 0
 107 007c 93040A00 		mv	s1,s4
 108              	.LVL8:
 109              	.L5:
 110              	.LBE18:
 111              	.LBE17:
 112              	.LBE16:
  10:src/TimeSleep.cpp ****     while(true) {
  11:src/TimeSleep.cpp ****         thread=release();
  12:src/TimeSleep.cpp ****         if(thread==nullptr) break;
 113              		.loc 1 12 9 is_stmt 1
 114 0080 638C0404 		beqz	s1,.L1
  13:src/TimeSleep.cpp ****         Scheduler::getInstance()->put(thread);
 115              		.loc 1 13 9
 116              		.loc 1 13 38 is_stmt 0
 117 0084 97000000 		call	_ZN9Scheduler11getInstanceEv@plt
 117      E7800000 
 118              	.LVL9:
 119 008c 93850400 		mv	a1,s1
 120 0090 97000000 		call	_ZN9Scheduler3putEP3TCB@plt
 120      E7800000 
 121              	.LVL10:
  10:src/TimeSleep.cpp ****     while(true) {
 122              		.loc 1 10 5 is_stmt 1
 123              	.L2:
  10:src/TimeSleep.cpp ****     while(true) {
 124              		.loc 1 10 5
  11:src/TimeSleep.cpp ****         if(thread==nullptr) break;
 125              		.loc 1 11 9
 126              	.LBB25:
 127              	.LBB24:
  56:src/../h/TimeSleep.hpp ****             if(cur->time<=0)
 128              		.loc 2 56 9
 129              	.LBB23:
  56:src/../h/TimeSleep.hpp ****             if(cur->time<=0)
 130              		.loc 2 56 19 is_stmt 0
 131 0098 83B40900 		ld	s1,0(s3)
 132              	.LVL11:
  56:src/../h/TimeSleep.hpp ****             if(cur->time<=0)
 133              		.loc 2 56 29
GAS LISTING /tmp/cc2FwB51.s 			page 5


 134 009c 93070900 		mv	a5,s2
 135              	.LVL12:
 136              	.L10:
  56:src/../h/TimeSleep.hpp ****             if(cur->time<=0)
 137              		.loc 2 56 39 is_stmt 1
 138 00a0 E38004FE 		beqz	s1,.L5
  57:src/../h/TimeSleep.hpp ****                 return remove(prev,cur);
 139              		.loc 2 57 13
  57:src/../h/TimeSleep.hpp ****                 return remove(prev,cur);
 140              		.loc 2 57 21 is_stmt 0
 141 00a4 03B70401 		ld	a4,16(s1)
  57:src/../h/TimeSleep.hpp ****                 return remove(prev,cur);
 142              		.loc 2 57 13
 143 00a8 E30007FA 		beqz	a4,.L15
  56:src/../h/TimeSleep.hpp ****             if(cur->time<=0)
 144              		.loc 2 56 9 is_stmt 1
 145              	.LVL13:
  56:src/../h/TimeSleep.hpp ****             if(cur->time<=0)
 146              		.loc 2 56 53 is_stmt 0
 147 00ac 93870400 		mv	a5,s1
  56:src/../h/TimeSleep.hpp ****             if(cur->time<=0)
 148              		.loc 2 56 61
 149 00b0 83B48400 		ld	s1,8(s1)
 150              	.LVL14:
  56:src/../h/TimeSleep.hpp ****             if(cur->time<=0)
 151              		.loc 2 56 9
 152 00b4 6FF0DFFE 		j	.L10
 153              	.LVL15:
 154              	.L13:
 155              	.LBB22:
 156              	.LBB21:
  41:src/../h/TimeSleep.hpp ****             if(!head) tail=nullptr;
 157              		.loc 2 41 13 is_stmt 1
  41:src/../h/TimeSleep.hpp ****             if(!head) tail=nullptr;
 158              		.loc 2 41 24 is_stmt 0
 159 00b8 83378700 		ld	a5,8(a4)
 160              	.LVL16:
  41:src/../h/TimeSleep.hpp ****             if(!head) tail=nullptr;
 161              		.loc 2 41 17
 162 00bc 23B0F900 		sd	a5,0(s3)
  42:src/../h/TimeSleep.hpp ****         }
 163              		.loc 2 42 13 is_stmt 1
 164 00c0 E39607FA 		bnez	a5,.L8
  42:src/../h/TimeSleep.hpp ****         }
 165              		.loc 2 42 23
  42:src/../h/TimeSleep.hpp ****         }
 166              		.loc 2 42 27 is_stmt 0
 167 00c4 23B40900 		sd	zero,8(s3)
 168 00c8 6FF05FFA 		j	.L8
 169              	.LVL17:
 170              	.L14:
  45:src/../h/TimeSleep.hpp ****             tail=prev;
 171              		.loc 2 45 13 is_stmt 1
  45:src/../h/TimeSleep.hpp ****             tail=prev;
 172              		.loc 2 45 23 is_stmt 0
 173 00cc 23B40700 		sd	zero,8(a5)
  46:src/../h/TimeSleep.hpp ****         }
GAS LISTING /tmp/cc2FwB51.s 			page 6


 174              		.loc 2 46 13 is_stmt 1
  46:src/../h/TimeSleep.hpp ****         }
 175              		.loc 2 46 17 is_stmt 0
 176 00d0 23B4F900 		sd	a5,8(s3)
 177 00d4 6FF09FF9 		j	.L8
 178              	.LVL18:
 179              	.L1:
 180              	.LBE21:
 181              	.LBE22:
 182              	.LBE23:
 183              	.LBE24:
 184              	.LBE25:
  14:src/TimeSleep.cpp ****     }
  15:src/TimeSleep.cpp **** 
  16:src/TimeSleep.cpp **** }
 185              		.loc 1 16 1
 186 00d8 83308102 		ld	ra,40(sp)
 187              		.cfi_restore 1
 188 00dc 03340102 		ld	s0,32(sp)
 189              		.cfi_restore 8
 190              		.cfi_def_cfa 2, 48
 191 00e0 83348101 		ld	s1,24(sp)
 192              		.cfi_restore 9
 193              	.LVL19:
 194 00e4 03390101 		ld	s2,16(sp)
 195              		.cfi_restore 18
 196 00e8 83398100 		ld	s3,8(sp)
 197              		.cfi_restore 19
 198              	.LVL20:
 199 00ec 033A0100 		ld	s4,0(sp)
 200              		.cfi_restore 20
 201 00f0 13010103 		addi	sp,sp,48
 202              		.cfi_def_cfa_offset 0
 203 00f4 67800000 		jr	ra
 204              		.cfi_endproc
 205              	.LFE30:
 207              		.align	2
 208              		.globl	_ZN9TimeSleep3putEP3TCBm
 210              	_ZN9TimeSleep3putEP3TCBm:
 211              	.LFB31:
  17:src/TimeSleep.cpp **** 
  18:src/TimeSleep.cpp **** void TimeSleep::put(TCB *tcb,time_t t) {
 212              		.loc 1 18 40 is_stmt 1
 213              		.cfi_startproc
 214              	.LVL21:
 215 00f8 130101FD 		addi	sp,sp,-48
 216              		.cfi_def_cfa_offset 48
 217 00fc 23341102 		sd	ra,40(sp)
 218 0100 23308102 		sd	s0,32(sp)
 219 0104 233C9100 		sd	s1,24(sp)
 220 0108 23382101 		sd	s2,16(sp)
 221 010c 23343101 		sd	s3,8(sp)
 222              		.cfi_offset 1, -8
 223              		.cfi_offset 8, -16
 224              		.cfi_offset 9, -24
 225              		.cfi_offset 18, -32
 226              		.cfi_offset 19, -40
GAS LISTING /tmp/cc2FwB51.s 			page 7


 227 0110 13040103 		addi	s0,sp,48
 228              		.cfi_def_cfa 8, 0
 229 0114 93040500 		mv	s1,a0
 230 0118 93890500 		mv	s3,a1
 231 011c 13090600 		mv	s2,a2
  19:src/TimeSleep.cpp ****     addTime(tcb,t);
 232              		.loc 1 19 5
 233              	.LVL22:
 234              	.LBB28:
 235              	.LBB29:
  22:src/../h/TimeSleep.hpp ****         elem->data = data;
 236              		.loc 2 22 9
  22:src/../h/TimeSleep.hpp ****         elem->data = data;
 237              		.loc 2 22 57 is_stmt 0
 238 0120 13050004 		li	a0,64
 239              	.LVL23:
 240 0124 97000000 		call	_ZN15MemoryAllocator9mem_allocEm@plt
 240      E7800000 
 241              	.LVL24:
  23:src/../h/TimeSleep.hpp ****         elem->time = t;
 242              		.loc 2 23 9 is_stmt 1
  23:src/../h/TimeSleep.hpp ****         elem->time = t;
 243              		.loc 2 23 20 is_stmt 0
 244 012c 23303501 		sd	s3,0(a0)
  24:src/../h/TimeSleep.hpp ****         elem->next = nullptr;
 245              		.loc 2 24 9 is_stmt 1
  24:src/../h/TimeSleep.hpp ****         elem->next = nullptr;
 246              		.loc 2 24 20 is_stmt 0
 247 0130 23382501 		sd	s2,16(a0)
  25:src/../h/TimeSleep.hpp ****         size++;
 248              		.loc 2 25 9 is_stmt 1
  25:src/../h/TimeSleep.hpp ****         size++;
 249              		.loc 2 25 20 is_stmt 0
 250 0134 23340500 		sd	zero,8(a0)
  26:src/../h/TimeSleep.hpp ****         if (tail) {
 251              		.loc 2 26 9 is_stmt 1
 252 0138 83A70401 		lw	a5,16(s1)
  26:src/../h/TimeSleep.hpp ****         if (tail) {
 253              		.loc 2 26 13 is_stmt 0
 254 013c 9B871700 		addiw	a5,a5,1
 255 0140 23A8F400 		sw	a5,16(s1)
  27:src/../h/TimeSleep.hpp ****             tail->next = elem;
 256              		.loc 2 27 9 is_stmt 1
  27:src/../h/TimeSleep.hpp ****             tail->next = elem;
 257              		.loc 2 27 13 is_stmt 0
 258 0144 83B78400 		ld	a5,8(s1)
  27:src/../h/TimeSleep.hpp ****             tail->next = elem;
 259              		.loc 2 27 9
 260 0148 63840702 		beqz	a5,.L17
  28:src/../h/TimeSleep.hpp ****             tail = elem;
 261              		.loc 2 28 13 is_stmt 1
  28:src/../h/TimeSleep.hpp ****             tail = elem;
 262              		.loc 2 28 24 is_stmt 0
 263 014c 23B4A700 		sd	a0,8(a5)
  29:src/../h/TimeSleep.hpp ****         } else {
 264              		.loc 2 29 13 is_stmt 1
  29:src/../h/TimeSleep.hpp ****         } else {
GAS LISTING /tmp/cc2FwB51.s 			page 8


 265              		.loc 2 29 18 is_stmt 0
 266 0150 23B4A400 		sd	a0,8(s1)
 267              	.LVL25:
 268              	.L16:
 269              	.LBE29:
 270              	.LBE28:
  20:src/TimeSleep.cpp **** }
 271              		.loc 1 20 1
 272 0154 83308102 		ld	ra,40(sp)
 273              		.cfi_remember_state
 274              		.cfi_restore 1
 275 0158 03340102 		ld	s0,32(sp)
 276              		.cfi_restore 8
 277              		.cfi_def_cfa 2, 48
 278 015c 83348101 		ld	s1,24(sp)
 279              		.cfi_restore 9
 280              	.LVL26:
 281 0160 03390101 		ld	s2,16(sp)
 282              		.cfi_restore 18
 283              	.LVL27:
 284 0164 83398100 		ld	s3,8(sp)
 285              		.cfi_restore 19
 286              	.LVL28:
 287 0168 13010103 		addi	sp,sp,48
 288              		.cfi_def_cfa_offset 0
 289 016c 67800000 		jr	ra
 290              	.LVL29:
 291              	.L17:
 292              		.cfi_restore_state
 293              	.LBB31:
 294              	.LBB30:
  31:src/../h/TimeSleep.hpp ****         }
 295              		.loc 2 31 13 is_stmt 1
  31:src/../h/TimeSleep.hpp ****         }
 296              		.loc 2 31 25 is_stmt 0
 297 0170 23B4A400 		sd	a0,8(s1)
  31:src/../h/TimeSleep.hpp ****         }
 298              		.loc 2 31 18
 299 0174 23B0A400 		sd	a0,0(s1)
 300              	.LVL30:
 301              	.LBE30:
 302              	.LBE31:
 303              		.loc 1 20 1
 304 0178 6FF0DFFD 		j	.L16
 305              		.cfi_endproc
 306              	.LFE31:
 308              		.align	2
 309              		.globl	_ZN9TimeSleep11getInstanceEv
 311              	_ZN9TimeSleep11getInstanceEv:
 312              	.LFB32:
  21:src/TimeSleep.cpp **** 
  22:src/TimeSleep.cpp **** TimeSleep *TimeSleep::getInstance() {
 313              		.loc 1 22 37 is_stmt 1
 314              		.cfi_startproc
 315 017c 130101FF 		addi	sp,sp,-16
 316              		.cfi_def_cfa_offset 16
 317 0180 23348100 		sd	s0,8(sp)
GAS LISTING /tmp/cc2FwB51.s 			page 9


 318              		.cfi_offset 8, -8
 319 0184 13040101 		addi	s0,sp,16
 320              		.cfi_def_cfa 8, 0
  23:src/TimeSleep.cpp ****     static TimeSleep instance;
 321              		.loc 1 23 5
 322              		.loc 1 23 22 is_stmt 0
 323 0188 97070000 		lbu	a5,.LANCHOR0
 323      83C70700 
 324 0190 63980700 		bnez	a5,.L21
 325 0194 93071000 		li	a5,1
 326 0198 17070000 		sb	a5,.LANCHOR0,a4
 326      2300F700 
 327              	.L21:
  24:src/TimeSleep.cpp ****     return &instance;
 328              		.loc 1 24 5 is_stmt 1
  25:src/TimeSleep.cpp **** }
 329              		.loc 1 25 1 is_stmt 0
 330 01a0 17050000 		lla	a0,.LANCHOR0+8
 330      13050500 
 331 01a8 03348100 		ld	s0,8(sp)
 332              		.cfi_restore 8
 333              		.cfi_def_cfa 2, 16
 334 01ac 13010101 		addi	sp,sp,16
 335              		.cfi_def_cfa_offset 0
 336 01b0 67800000 		jr	ra
 337              		.cfi_endproc
 338              	.LFE32:
 340              		.bss
 341              		.align	3
 342              		.set	.LANCHOR0,. + 0
 345              	_ZGVZN9TimeSleep11getInstanceEvE8instance:
 346 0000 00000000 		.zero	8
 346      00000000 
 349              	_ZZN9TimeSleep11getInstanceEvE8instance:
 350 0008 00000000 		.zero	24
 350      00000000 
 350      00000000 
 350      00000000 
 350      00000000 
 351              		.text
 352              	.Letext0:
 353              		.file 3 "src/../h/../lib/hw.h"
 354              		.file 4 "src/../h/MemoryAllocator.hpp"
 355              		.file 5 "src/../h/list.hpp"
 356              		.file 6 "src/../h/scheduler.hpp"
GAS LISTING /tmp/cc2FwB51.s 			page 10


DEFINED SYMBOLS
                            *ABS*:0000000000000000 TimeSleep.cpp
     /tmp/cc2FwB51.s:9      .text:0000000000000000 _ZN9TimeSleep8releasedEv
     /tmp/cc2FwB51.s:13     .text:0000000000000000 .L0 
     /tmp/cc2FwB51.s:15     .text:0000000000000000 .L0 
     /tmp/cc2FwB51.s:16     .text:0000000000000004 .L0 
     /tmp/cc2FwB51.s:23     .text:000000000000001c .L0 
     /tmp/cc2FwB51.s:24     .text:000000000000001c .L0 
     /tmp/cc2FwB51.s:25     .text:000000000000001c .L0 
     /tmp/cc2FwB51.s:26     .text:000000000000001c .L0 
     /tmp/cc2FwB51.s:27     .text:000000000000001c .L0 
     /tmp/cc2FwB51.s:28     .text:000000000000001c .L0 
     /tmp/cc2FwB51.s:30     .text:0000000000000020 .L0 
     /tmp/cc2FwB51.s:33     .text:0000000000000024 .L0 
     /tmp/cc2FwB51.s:36     .text:0000000000000024 .L0 
     /tmp/cc2FwB51.s:39     .text:0000000000000024 .L0 
     /tmp/cc2FwB51.s:40     .text:0000000000000024 .L0 
     /tmp/cc2FwB51.s:45     .text:000000000000002c .L0 
     /tmp/cc2FwB51.s:46     .text:000000000000002c .L0 
     /tmp/cc2FwB51.s:50     .text:0000000000000030 .L0 
     /tmp/cc2FwB51.s:52     .text:0000000000000034 .L0 
     /tmp/cc2FwB51.s:53     .text:0000000000000034 .L0 
     /tmp/cc2FwB51.s:55     .text:0000000000000038 .L0 
     /tmp/cc2FwB51.s:57     .text:000000000000003c .L0 
     /tmp/cc2FwB51.s:58     .text:000000000000003c .L0 
     /tmp/cc2FwB51.s:60     .text:0000000000000040 .L0 
     /tmp/cc2FwB51.s:72     .text:0000000000000048 .L0 
     /tmp/cc2FwB51.s:73     .text:0000000000000048 .L0 
     /tmp/cc2FwB51.s:75     .text:000000000000004c .L0 
     /tmp/cc2FwB51.s:78     .text:0000000000000054 .L0 
     /tmp/cc2FwB51.s:79     .text:0000000000000054 .L0 
     /tmp/cc2FwB51.s:81     .text:0000000000000058 .L0 
     /tmp/cc2FwB51.s:83     .text:000000000000005c .L0 
     /tmp/cc2FwB51.s:84     .text:000000000000005c .L0 
     /tmp/cc2FwB51.s:86     .text:0000000000000060 .L0 
     /tmp/cc2FwB51.s:88     .text:0000000000000064 .L0 
     /tmp/cc2FwB51.s:89     .text:0000000000000064 .L0 
     /tmp/cc2FwB51.s:91     .text:0000000000000068 .L0 
     /tmp/cc2FwB51.s:95     .text:000000000000006c .L0 
     /tmp/cc2FwB51.s:96     .text:000000000000006c .L0 
     /tmp/cc2FwB51.s:99     .text:0000000000000070 .L0 
     /tmp/cc2FwB51.s:100    .text:0000000000000070 .L0 
     /tmp/cc2FwB51.s:106    .text:000000000000007c .L0 
     /tmp/cc2FwB51.s:107    .text:000000000000007c .L0 
     /tmp/cc2FwB51.s:114    .text:0000000000000080 .L0 
     /tmp/cc2FwB51.s:116    .text:0000000000000084 .L0 
     /tmp/cc2FwB51.s:117    .text:0000000000000084 .L0 
     /tmp/cc2FwB51.s:124    .text:0000000000000098 .L0 
     /tmp/cc2FwB51.s:125    .text:0000000000000098 .L0 
     /tmp/cc2FwB51.s:128    .text:0000000000000098 .L0 
     /tmp/cc2FwB51.s:130    .text:0000000000000098 .L0 
     /tmp/cc2FwB51.s:131    .text:0000000000000098 .L0 
     /tmp/cc2FwB51.s:134    .text:000000000000009c .L0 
     /tmp/cc2FwB51.s:138    .text:00000000000000a0 .L0 
     /tmp/cc2FwB51.s:140    .text:00000000000000a4 .L0 
     /tmp/cc2FwB51.s:141    .text:00000000000000a4 .L0 
     /tmp/cc2FwB51.s:143    .text:00000000000000a8 .L0 
GAS LISTING /tmp/cc2FwB51.s 			page 11


     /tmp/cc2FwB51.s:146    .text:00000000000000ac .L0 
     /tmp/cc2FwB51.s:147    .text:00000000000000ac .L0 
     /tmp/cc2FwB51.s:149    .text:00000000000000b0 .L0 
     /tmp/cc2FwB51.s:152    .text:00000000000000b4 .L0 
     /tmp/cc2FwB51.s:158    .text:00000000000000b8 .L0 
     /tmp/cc2FwB51.s:159    .text:00000000000000b8 .L0 
     /tmp/cc2FwB51.s:162    .text:00000000000000bc .L0 
     /tmp/cc2FwB51.s:164    .text:00000000000000c0 .L0 
     /tmp/cc2FwB51.s:166    .text:00000000000000c4 .L0 
     /tmp/cc2FwB51.s:167    .text:00000000000000c4 .L0 
     /tmp/cc2FwB51.s:172    .text:00000000000000cc .L0 
     /tmp/cc2FwB51.s:173    .text:00000000000000cc .L0 
     /tmp/cc2FwB51.s:175    .text:00000000000000d0 .L0 
     /tmp/cc2FwB51.s:176    .text:00000000000000d0 .L0 
     /tmp/cc2FwB51.s:186    .text:00000000000000d8 .L0 
     /tmp/cc2FwB51.s:187    .text:00000000000000dc .L0 
     /tmp/cc2FwB51.s:189    .text:00000000000000e0 .L0 
     /tmp/cc2FwB51.s:190    .text:00000000000000e0 .L0 
     /tmp/cc2FwB51.s:192    .text:00000000000000e4 .L0 
     /tmp/cc2FwB51.s:195    .text:00000000000000e8 .L0 
     /tmp/cc2FwB51.s:197    .text:00000000000000ec .L0 
     /tmp/cc2FwB51.s:200    .text:00000000000000f0 .L0 
     /tmp/cc2FwB51.s:202    .text:00000000000000f4 .L0 
     /tmp/cc2FwB51.s:204    .text:00000000000000f8 .L0 
     /tmp/cc2FwB51.s:210    .text:00000000000000f8 _ZN9TimeSleep3putEP3TCBm
     /tmp/cc2FwB51.s:213    .text:00000000000000f8 .L0 
     /tmp/cc2FwB51.s:215    .text:00000000000000f8 .L0 
     /tmp/cc2FwB51.s:216    .text:00000000000000fc .L0 
     /tmp/cc2FwB51.s:222    .text:0000000000000110 .L0 
     /tmp/cc2FwB51.s:223    .text:0000000000000110 .L0 
     /tmp/cc2FwB51.s:224    .text:0000000000000110 .L0 
     /tmp/cc2FwB51.s:225    .text:0000000000000110 .L0 
     /tmp/cc2FwB51.s:226    .text:0000000000000110 .L0 
     /tmp/cc2FwB51.s:228    .text:0000000000000114 .L0 
     /tmp/cc2FwB51.s:236    .text:0000000000000120 .L0 
     /tmp/cc2FwB51.s:237    .text:0000000000000120 .L0 
     /tmp/cc2FwB51.s:238    .text:0000000000000120 .L0 
     /tmp/cc2FwB51.s:243    .text:000000000000012c .L0 
     /tmp/cc2FwB51.s:244    .text:000000000000012c .L0 
     /tmp/cc2FwB51.s:246    .text:0000000000000130 .L0 
     /tmp/cc2FwB51.s:247    .text:0000000000000130 .L0 
     /tmp/cc2FwB51.s:249    .text:0000000000000134 .L0 
     /tmp/cc2FwB51.s:250    .text:0000000000000134 .L0 
     /tmp/cc2FwB51.s:252    .text:0000000000000138 .L0 
     /tmp/cc2FwB51.s:254    .text:000000000000013c .L0 
     /tmp/cc2FwB51.s:257    .text:0000000000000144 .L0 
     /tmp/cc2FwB51.s:258    .text:0000000000000144 .L0 
     /tmp/cc2FwB51.s:260    .text:0000000000000148 .L0 
     /tmp/cc2FwB51.s:262    .text:000000000000014c .L0 
     /tmp/cc2FwB51.s:263    .text:000000000000014c .L0 
     /tmp/cc2FwB51.s:265    .text:0000000000000150 .L0 
     /tmp/cc2FwB51.s:266    .text:0000000000000150 .L0 
     /tmp/cc2FwB51.s:272    .text:0000000000000154 .L0 
     /tmp/cc2FwB51.s:273    .text:0000000000000158 .L0 
     /tmp/cc2FwB51.s:274    .text:0000000000000158 .L0 
     /tmp/cc2FwB51.s:276    .text:000000000000015c .L0 
     /tmp/cc2FwB51.s:277    .text:000000000000015c .L0 
GAS LISTING /tmp/cc2FwB51.s 			page 12


     /tmp/cc2FwB51.s:279    .text:0000000000000160 .L0 
     /tmp/cc2FwB51.s:282    .text:0000000000000164 .L0 
     /tmp/cc2FwB51.s:285    .text:0000000000000168 .L0 
     /tmp/cc2FwB51.s:288    .text:000000000000016c .L0 
     /tmp/cc2FwB51.s:292    .text:0000000000000170 .L0 
     /tmp/cc2FwB51.s:296    .text:0000000000000170 .L0 
     /tmp/cc2FwB51.s:297    .text:0000000000000170 .L0 
     /tmp/cc2FwB51.s:299    .text:0000000000000174 .L0 
     /tmp/cc2FwB51.s:304    .text:0000000000000178 .L0 
     /tmp/cc2FwB51.s:305    .text:000000000000017c .L0 
     /tmp/cc2FwB51.s:311    .text:000000000000017c _ZN9TimeSleep11getInstanceEv
     /tmp/cc2FwB51.s:314    .text:000000000000017c .L0 
     /tmp/cc2FwB51.s:315    .text:000000000000017c .L0 
     /tmp/cc2FwB51.s:316    .text:0000000000000180 .L0 
     /tmp/cc2FwB51.s:318    .text:0000000000000184 .L0 
     /tmp/cc2FwB51.s:320    .text:0000000000000188 .L0 
     /tmp/cc2FwB51.s:322    .text:0000000000000188 .L0 
     /tmp/cc2FwB51.s:323    .text:0000000000000188 .L0 
     /tmp/cc2FwB51.s:329    .text:00000000000001a0 .L0 
     /tmp/cc2FwB51.s:330    .text:00000000000001a0 .L0 
     /tmp/cc2FwB51.s:332    .text:00000000000001ac .L0 
     /tmp/cc2FwB51.s:333    .text:00000000000001ac .L0 
     /tmp/cc2FwB51.s:335    .text:00000000000001b0 .L0 
     /tmp/cc2FwB51.s:337    .text:00000000000001b4 .L0 
     /tmp/cc2FwB51.s:342    .bss:0000000000000000 .LANCHOR0
     /tmp/cc2FwB51.s:345    .bss:0000000000000000 _ZGVZN9TimeSleep11getInstanceEvE8instance
     /tmp/cc2FwB51.s:349    .bss:0000000000000008 _ZZN9TimeSleep11getInstanceEvE8instance
     /tmp/cc2FwB51.s:357    .text:00000000000001b4 .L0 
     /tmp/cc2FwB51.s:323    .text:0000000000000188 .L0 
     /tmp/cc2FwB51.s:326    .text:0000000000000198 .L0 
     /tmp/cc2FwB51.s:330    .text:00000000000001a0 .L0 
     /tmp/cc2FwB51.s:48     .text:0000000000000030 .L4
     /tmp/cc2FwB51.s:123    .text:0000000000000098 .L2
     /tmp/cc2FwB51.s:43     .text:000000000000002c .L3
     /tmp/cc2FwB51.s:154    .text:00000000000000b8 .L13
     /tmp/cc2FwB51.s:170    .text:00000000000000cc .L14
     /tmp/cc2FwB51.s:179    .text:00000000000000d8 .L1
     /tmp/cc2FwB51.s:109    .text:0000000000000080 .L5
     /tmp/cc2FwB51.s:63     .text:0000000000000048 .L15
     /tmp/cc2FwB51.s:136    .text:00000000000000a0 .L10
     /tmp/cc2FwB51.s:93     .text:000000000000006c .L8
     /tmp/cc2FwB51.s:291    .text:0000000000000170 .L17
     /tmp/cc2FwB51.s:268    .text:0000000000000154 .L16
     /tmp/cc2FwB51.s:327    .text:00000000000001a0 .L21
     /tmp/cc2FwB51.s:1617   .debug_abbrev:0000000000000000 .Ldebug_abbrev0
     /tmp/cc2FwB51.s:3209   .debug_str:00000000000005b3 .LASF104
     /tmp/cc2FwB51.s:3063   .debug_str:0000000000000151 .LASF105
     /tmp/cc2FwB51.s:3255   .debug_str:0000000000000802 .LASF106
     /tmp/cc2FwB51.s:5      .text:0000000000000000 .Ltext0
     /tmp/cc2FwB51.s:352    .text:00000000000001b4 .Letext0
     /tmp/cc2FwB51.s:3025   .debug_line:0000000000000000 .Ldebug_line0
     /tmp/cc2FwB51.s:3143   .debug_str:00000000000003b7 .LASF0
     /tmp/cc2FwB51.s:3153   .debug_str:00000000000003ee .LASF1
     /tmp/cc2FwB51.s:3129   .debug_str:0000000000000355 .LASF2
     /tmp/cc2FwB51.s:3103   .debug_str:00000000000002a9 .LASF4
     /tmp/cc2FwB51.s:3189   .debug_str:0000000000000502 .LASF3
     /tmp/cc2FwB51.s:3047   .debug_str:00000000000000b9 .LASF5
GAS LISTING /tmp/cc2FwB51.s 			page 13


     /tmp/cc2FwB51.s:3071   .debug_str:0000000000000186 .LASF6
     /tmp/cc2FwB51.s:3155   .debug_str:0000000000000401 .LASF7
     /tmp/cc2FwB51.s:3141   .debug_str:00000000000003a4 .LASF8
     /tmp/cc2FwB51.s:3225   .debug_str:00000000000006f1 .LASF9
     /tmp/cc2FwB51.s:3091   .debug_str:000000000000023b .LASF10
     /tmp/cc2FwB51.s:3167   .debug_str:000000000000045d .LASF11
     /tmp/cc2FwB51.s:3215   .debug_str:0000000000000695 .LASF12
     /tmp/cc2FwB51.s:3051   .debug_str:00000000000000ef .LASF13
     /tmp/cc2FwB51.s:3033   .debug_str:000000000000001b .LASF14
     /tmp/cc2FwB51.s:3059   .debug_str:0000000000000133 .LASF15
     /tmp/cc2FwB51.s:3185   .debug_str:00000000000004e7 .LASF16
     /tmp/cc2FwB51.s:3065   .debug_str:0000000000000163 .LASF17
     /tmp/cc2FwB51.s:3123   .debug_str:0000000000000332 .LASF37
     /tmp/cc2FwB51.s:3217   .debug_str:00000000000006a4 .LASF107
     /tmp/cc2FwB51.s:3029   .debug_str:000000000000000d .LASF18
     /tmp/cc2FwB51.s:3109   .debug_str:00000000000002c9 .LASF19
     /tmp/cc2FwB51.s:3197   .debug_str:0000000000000535 .LASF108
     /tmp/cc2FwB51.s:3175   .debug_str:00000000000004a6 .LASF20
     /tmp/cc2FwB51.s:3239   .debug_str:0000000000000771 .LASF21
     /tmp/cc2FwB51.s:3251   .debug_str:00000000000007ea .LASF22
     /tmp/cc2FwB51.s:3235   .debug_str:000000000000075f .LASF23
     /tmp/cc2FwB51.s:3203   .debug_str:0000000000000578 .LASF24
     /tmp/cc2FwB51.s:3169   .debug_str:000000000000046c .LASF25
     /tmp/cc2FwB51.s:3049   .debug_str:00000000000000c0 .LASF27
     /tmp/cc2FwB51.s:3193   .debug_str:000000000000051e .LASF26
     /tmp/cc2FwB51.s:3037   .debug_str:000000000000003d .LASF28
     /tmp/cc2FwB51.s:3081   .debug_str:00000000000001e8 .LASF29
     /tmp/cc2FwB51.s:3173   .debug_str:0000000000000478 .LASF30
     /tmp/cc2FwB51.s:3079   .debug_str:00000000000001df .LASF31
     /tmp/cc2FwB51.s:3089   .debug_str:000000000000021a .LASF33
     /tmp/cc2FwB51.s:3191   .debug_str:0000000000000514 .LASF32
     /tmp/cc2FwB51.s:3199   .debug_str:000000000000053e .LASF34
     /tmp/cc2FwB51.s:3159   .debug_str:0000000000000419 .LASF109
     /tmp/cc2FwB51.s:3207   .debug_str:0000000000000597 .LASF110
     /tmp/cc2FwB51.s:3083   .debug_str:00000000000001f2 .LASF35
     /tmp/cc2FwB51.s:3105   .debug_str:00000000000002b0 .LASF36
     /tmp/cc2FwB51.s:3075   .debug_str:00000000000001a9 .LASF38
     /tmp/cc2FwB51.s:3221   .debug_str:00000000000006c0 .LASF39
     /tmp/cc2FwB51.s:3233   .debug_str:0000000000000744 .LASF40
     /tmp/cc2FwB51.s:3157   .debug_str:0000000000000414 .LASF41
     /tmp/cc2FwB51.s:3119   .debug_str:0000000000000323 .LASF42
     /tmp/cc2FwB51.s:3121   .debug_str:000000000000032d .LASF79
     /tmp/cc2FwB51.s:3069   .debug_str:0000000000000181 .LASF43
     /tmp/cc2FwB51.s:3133   .debug_str:000000000000036b .LASF44
     /tmp/cc2FwB51.s:3179   .debug_str:00000000000004b5 .LASF45
     /tmp/cc2FwB51.s:3205   .debug_str:000000000000057d .LASF46
     /tmp/cc2FwB51.s:3101   .debug_str:00000000000002a4 .LASF47
     /tmp/cc2FwB51.s:3145   .debug_str:00000000000003c4 .LASF48
     /tmp/cc2FwB51.s:3183   .debug_str:00000000000004d0 .LASF49
     /tmp/cc2FwB51.s:3135   .debug_str:0000000000000370 .LASF74
     /tmp/cc2FwB51.s:3095   .debug_str:000000000000025b .LASF111
     /tmp/cc2FwB51.s:3041   .debug_str:0000000000000089 .LASF50
     /tmp/cc2FwB51.s:3077   .debug_str:00000000000001c2 .LASF51
     /tmp/cc2FwB51.s:3131   .debug_str:0000000000000363 .LASF52
     /tmp/cc2FwB51.s:3073   .debug_str:000000000000018d .LASF53
     /tmp/cc2FwB51.s:3211   .debug_str:0000000000000677 .LASF54
     /tmp/cc2FwB51.s:3099   .debug_str:0000000000000286 .LASF55
GAS LISTING /tmp/cc2FwB51.s 			page 14


     /tmp/cc2FwB51.s:3055   .debug_str:0000000000000111 .LASF56
     /tmp/cc2FwB51.s:3113   .debug_str:00000000000002ec .LASF57
     /tmp/cc2FwB51.s:3147   .debug_str:00000000000003d7 .LASF58
     /tmp/cc2FwB51.s:3039   .debug_str:000000000000006c .LASF59
     /tmp/cc2FwB51.s:3117   .debug_str:000000000000031a .LASF60
     /tmp/cc2FwB51.s:3241   .debug_str:0000000000000776 .LASF61
     /tmp/cc2FwB51.s:3165   .debug_str:0000000000000453 .LASF62
     /tmp/cc2FwB51.s:3027   .debug_str:0000000000000000 .LASF63
     /tmp/cc2FwB51.s:3035   .debug_str:000000000000002b .LASF69
     /tmp/cc2FwB51.s:3237   .debug_str:0000000000000764 .LASF64
     /tmp/cc2FwB51.s:3213   .debug_str:0000000000000683 .LASF65
     /tmp/cc2FwB51.s:3087   .debug_str:000000000000020a .LASF66
     /tmp/cc2FwB51.s:3227   .debug_str:0000000000000701 .LASF67
     /tmp/cc2FwB51.s:3195   .debug_str:0000000000000525 .LASF68
     /tmp/cc2FwB51.s:3115   .debug_str:0000000000000307 .LASF70
     /tmp/cc2FwB51.s:3107   .debug_str:00000000000002b6 .LASF71
     /tmp/cc2FwB51.s:3181   .debug_str:00000000000004bd .LASF72
     /tmp/cc2FwB51.s:3097   .debug_str:0000000000000272 .LASF112
     /tmp/cc2FwB51.s:3057   .debug_str:000000000000011b .LASF93
     /tmp/cc2FwB51.s:3249   .debug_str:00000000000007de .LASF95
     /tmp/cc2FwB51.s:3111   .debug_str:00000000000002cf .LASF96
     /tmp/cc2FwB51.s:3219   .debug_str:00000000000006ab .LASF73
     /tmp/cc2FwB51.s:3139   .debug_str:000000000000038f .LASF75
     /tmp/cc2FwB51.s:3127   .debug_str:000000000000034b .LASF76
     /tmp/cc2FwB51.s:3177   .debug_str:00000000000004b0 .LASF77
     /tmp/cc2FwB51.s:3149   .debug_str:00000000000003e2 .LASF78
     /tmp/cc2FwB51.s:3043   .debug_str:0000000000000092 .LASF80
     /tmp/cc2FwB51.s:3061   .debug_str:000000000000013f .LASF81
     /tmp/cc2FwB51.s:3067   .debug_str:0000000000000179 .LASF82
     /tmp/cc2FwB51.s:3231   .debug_str:0000000000000727 .LASF83
     /tmp/cc2FwB51.s:3229   .debug_str:0000000000000713 .LASF113
     /tmp/cc2FwB51.s:3161   .debug_str:000000000000041e .LASF84
     /tmp/cc2FwB51.s:3045   .debug_str:00000000000000b1 .LASF85
     /tmp/cc2FwB51.s:3247   .debug_str:00000000000007c6 .LASF86
     /tmp/cc2FwB51.s:3053   .debug_str:00000000000000ff .LASF87
     /tmp/cc2FwB51.s:3163   .debug_str:0000000000000441 .LASF88
     /tmp/cc2FwB51.s:3253   .debug_str:00000000000007ef .LASF89
     /tmp/cc2FwB51.s:3085   .debug_str:00000000000001f7 .LASF90
     /tmp/cc2FwB51.s:3031   .debug_str:0000000000000012 .LASF91
     /tmp/cc2FwB51.s:3201   .debug_str:000000000000055f .LASF92
     /tmp/cc2FwB51.s:3245   .debug_str:00000000000007ad .LASF94
     /tmp/cc2FwB51.s:3243   .debug_str:0000000000000790 .LASF97
     /tmp/cc2FwB51.s:3137   .debug_str:000000000000037a .LASF98
     /tmp/cc2FwB51.s:3223   .debug_str:00000000000006dc .LASF99
     /tmp/cc2FwB51.s:312    .text:000000000000017c .LFB32
     /tmp/cc2FwB51.s:338    .text:00000000000001b4 .LFE32
     /tmp/cc2FwB51.s:3125   .debug_str:0000000000000342 .LASF100
     /tmp/cc2FwB51.s:211    .text:00000000000000f8 .LFB31
     /tmp/cc2FwB51.s:306    .text:000000000000017c .LFE31
     /tmp/cc2FwB51.s:3171   .debug_str:0000000000000473 .LASF101
     /tmp/cc2FwB51.s:2729   .debug_loc:0000000000000000 .LLST11
     /tmp/cc2FwB51.s:2751   .debug_loc:000000000000005f .LLST12
     /tmp/cc2FwB51.s:2773   .debug_loc:00000000000000be .LLST13
     /tmp/cc2FwB51.s:234    .text:0000000000000120 .LBB28
     /tmp/cc2FwB51.s:2999   .debug_ranges:0000000000000000 .Ldebug_ranges0
     /tmp/cc2FwB51.s:2795   .debug_loc:000000000000011d .LLST14
     /tmp/cc2FwB51.s:2810   .debug_loc:0000000000000166 .LLST15
GAS LISTING /tmp/cc2FwB51.s 			page 15


     /tmp/cc2FwB51.s:2825   .debug_loc:00000000000001af .LLST16
     /tmp/cc2FwB51.s:241    .text:000000000000012c .LVL24
     /tmp/cc2FwB51.s:10     .text:0000000000000000 .LFB30
     /tmp/cc2FwB51.s:205    .text:00000000000000f8 .LFE30
     /tmp/cc2FwB51.s:2840   .debug_loc:00000000000001f8 .LLST0
     /tmp/cc2FwB51.s:3151   .debug_str:00000000000003e7 .LASF102
     /tmp/cc2FwB51.s:2858   .debug_loc:0000000000000244 .LLST1
     /tmp/cc2FwB51.s:37     .text:0000000000000024 .LBB14
     /tmp/cc2FwB51.s:65     .text:0000000000000048 .LBE14
     /tmp/cc2FwB51.s:2869   .debug_loc:000000000000027a .LLST2
     /tmp/cc2FwB51.s:38     .text:0000000000000024 .LBB15
     /tmp/cc2FwB51.s:64     .text:0000000000000048 .LBE15
     /tmp/cc2FwB51.s:2876   .debug_loc:000000000000029d .LLST3
     /tmp/cc2FwB51.s:66     .text:0000000000000048 .LBB16
     /tmp/cc2FwB51.s:2883   .debug_loc:00000000000002c0 .LLST4
     /tmp/cc2FwB51.s:2894   .debug_loc:00000000000002f6 .LLST5
     /tmp/cc2FwB51.s:2914   .debug_loc:0000000000000353 .LLST6
     /tmp/cc2FwB51.s:70     .text:0000000000000048 .LBB19
     /tmp/cc2FwB51.s:2942   .debug_loc:00000000000003d6 .LLST7
     /tmp/cc2FwB51.s:2953   .debug_loc:000000000000040c .LLST8
     /tmp/cc2FwB51.s:2968   .debug_loc:0000000000000455 .LLST9
     /tmp/cc2FwB51.s:2979   .debug_loc:000000000000048b .LLST10
     /tmp/cc2FwB51.s:102    .text:000000000000007c .LVL7
     /tmp/cc2FwB51.s:118    .text:000000000000008c .LVL9
     /tmp/cc2FwB51.s:121    .text:0000000000000098 .LVL10
     /tmp/cc2FwB51.s:3187   .debug_str:00000000000004fd .LASF103
     /tmp/cc2FwB51.s:3093   .debug_str:0000000000000249 .LASF114
     /tmp/cc2FwB51.s:214    .text:00000000000000f8 .LVL21
     /tmp/cc2FwB51.s:239    .text:0000000000000124 .LVL23
     /tmp/cc2FwB51.s:280    .text:0000000000000160 .LVL26
     /tmp/cc2FwB51.s:290    .text:0000000000000170 .LVL29
     /tmp/cc2FwB51.s:286    .text:0000000000000168 .LVL28
     /tmp/cc2FwB51.s:283    .text:0000000000000164 .LVL27
     /tmp/cc2FwB51.s:233    .text:0000000000000120 .LVL22
     /tmp/cc2FwB51.s:267    .text:0000000000000154 .LVL25
     /tmp/cc2FwB51.s:300    .text:0000000000000178 .LVL30
     /tmp/cc2FwB51.s:14     .text:0000000000000000 .LVL0
     /tmp/cc2FwB51.s:62     .text:0000000000000048 .LVL4
     /tmp/cc2FwB51.s:198    .text:00000000000000ec .LVL20
     /tmp/cc2FwB51.s:108    .text:0000000000000080 .LVL8
     /tmp/cc2FwB51.s:178    .text:00000000000000d8 .LVL18
     /tmp/cc2FwB51.s:193    .text:00000000000000e4 .LVL19
     /tmp/cc2FwB51.s:34     .text:0000000000000024 .LVL1
     /tmp/cc2FwB51.s:41     .text:0000000000000028 .LVL2
     /tmp/cc2FwB51.s:132    .text:000000000000009c .LVL11
     /tmp/cc2FwB51.s:145    .text:00000000000000ac .LVL13
     /tmp/cc2FwB51.s:150    .text:00000000000000b4 .LVL14
     /tmp/cc2FwB51.s:92     .text:000000000000006c .LVL5
     /tmp/cc2FwB51.s:135    .text:00000000000000a0 .LVL12
     /tmp/cc2FwB51.s:160    .text:00000000000000bc .LVL16
     /tmp/cc2FwB51.s:169    .text:00000000000000cc .LVL17
     /tmp/cc2FwB51.s:153    .text:00000000000000b8 .LVL15
     /tmp/cc2FwB51.s:97     .text:0000000000000070 .LVL6
     /tmp/cc2FwB51.s:358    .debug_info:0000000000000000 .Ldebug_info0
     /tmp/cc2FwB51.s:112    .text:0000000000000080 .LBE16
     /tmp/cc2FwB51.s:126    .text:0000000000000098 .LBB25
     /tmp/cc2FwB51.s:184    .text:00000000000000d8 .LBE25
GAS LISTING /tmp/cc2FwB51.s 			page 16


     /tmp/cc2FwB51.s:68     .text:0000000000000048 .LBB18
     /tmp/cc2FwB51.s:110    .text:0000000000000080 .LBE18
     /tmp/cc2FwB51.s:129    .text:0000000000000098 .LBB23
     /tmp/cc2FwB51.s:182    .text:00000000000000d8 .LBE23
     /tmp/cc2FwB51.s:105    .text:000000000000007c .LBE19
     /tmp/cc2FwB51.s:155    .text:00000000000000b8 .LBB22
     /tmp/cc2FwB51.s:181    .text:00000000000000d8 .LBE22
     /tmp/cc2FwB51.s:270    .text:0000000000000154 .LBE28
     /tmp/cc2FwB51.s:293    .text:0000000000000170 .LBB31
     /tmp/cc2FwB51.s:302    .text:0000000000000178 .LBE31

UNDEFINED SYMBOLS
_ZN15MemoryAllocator8mem_freeEPv
_ZN9Scheduler11getInstanceEv
_ZN9Scheduler3putEP3TCB
_ZN15MemoryAllocator9mem_allocEm
