GAS LISTING /tmp/ccy9Y6Ap.s 			page 1


   1              		.file	"userMain.cpp"
   2              		.option pic
   3              		.option norelax
   4              		.text
   5              	.Ltext0:
   6              		.section	.text._ZN6Thread3runEv,"axG",@progbits,_ZN6Thread3runEv,comdat
   7              		.align	2
   8              		.weak	_ZN6Thread3runEv
  10              	_ZN6Thread3runEv:
  11              	.LFB33:
  12              		.file 1 "src/../test/../h/syscall_cpp.hpp"
   1:src/../test/../h/syscall_cpp.hpp **** //
   2:src/../test/../h/syscall_cpp.hpp **** // Created by os on 8/19/22.
   3:src/../test/../h/syscall_cpp.hpp **** //
   4:src/../test/../h/syscall_cpp.hpp **** 
   5:src/../test/../h/syscall_cpp.hpp **** #ifndef PROJECT_BASE_V1_1_SYSCALL_CPP_HPP
   6:src/../test/../h/syscall_cpp.hpp **** #define PROJECT_BASE_V1_1_SYSCALL_CPP_HPP
   7:src/../test/../h/syscall_cpp.hpp **** 
   8:src/../test/../h/syscall_cpp.hpp **** #include "syscall_c.h"
   9:src/../test/../h/syscall_cpp.hpp **** #include "tcb.hpp"
  10:src/../test/../h/syscall_cpp.hpp **** 
  11:src/../test/../h/syscall_cpp.hpp **** class Thread{
  12:src/../test/../h/syscall_cpp.hpp **** public:
  13:src/../test/../h/syscall_cpp.hpp ****     Thread(void (*body)(void*),void* arg);
  14:src/../test/../h/syscall_cpp.hpp ****     virtual ~Thread();
  15:src/../test/../h/syscall_cpp.hpp ****     int start();
  16:src/../test/../h/syscall_cpp.hpp ****     static void dispatch();
  17:src/../test/../h/syscall_cpp.hpp ****     static int sleep(time_t);
  18:src/../test/../h/syscall_cpp.hpp ****     static void wrapper(void* t);
  19:src/../test/../h/syscall_cpp.hpp **** protected:
  20:src/../test/../h/syscall_cpp.hpp ****     Thread();
  21:src/../test/../h/syscall_cpp.hpp ****     virtual void run() {}
  13              		.loc 1 21 18
  14              		.cfi_startproc
  15              	.LVL0:
  16 0000 130101FF 		addi	sp,sp,-16
  17              		.cfi_def_cfa_offset 16
  18 0004 23348100 		sd	s0,8(sp)
  19              		.cfi_offset 8, -8
  20 0008 13040101 		addi	s0,sp,16
  21              		.cfi_def_cfa 8, 0
  22              		.loc 1 21 25 is_stmt 0
  23 000c 03348100 		ld	s0,8(sp)
  24              		.cfi_restore 8
  25              		.cfi_def_cfa 2, 16
  26 0010 13010101 		addi	sp,sp,16
  27              		.cfi_def_cfa_offset 0
  28 0014 67800000 		jr	ra
  29              		.cfi_endproc
  30              	.LFE33:
  32              		.section	.text._ZN14PeriodicThread18periodicActivationEv,"axG",@progbits,_ZN14PeriodicThread18peri
  33              		.align	2
  34              		.weak	_ZN14PeriodicThread18periodicActivationEv
  36              	_ZN14PeriodicThread18periodicActivationEv:
  37              	.LFB34:
  22:src/../test/../h/syscall_cpp.hpp **** 
  23:src/../test/../h/syscall_cpp.hpp **** private:
GAS LISTING /tmp/ccy9Y6Ap.s 			page 2


  24:src/../test/../h/syscall_cpp.hpp ****     thread_t myHandle;
  25:src/../test/../h/syscall_cpp.hpp **** };
  26:src/../test/../h/syscall_cpp.hpp **** 
  27:src/../test/../h/syscall_cpp.hpp **** 
  28:src/../test/../h/syscall_cpp.hpp **** class Semaphore{
  29:src/../test/../h/syscall_cpp.hpp **** public:
  30:src/../test/../h/syscall_cpp.hpp ****     Semaphore(unsigned init=1);
  31:src/../test/../h/syscall_cpp.hpp ****     virtual ~Semaphore();
  32:src/../test/../h/syscall_cpp.hpp **** 
  33:src/../test/../h/syscall_cpp.hpp ****     int wait();
  34:src/../test/../h/syscall_cpp.hpp ****     int signal();
  35:src/../test/../h/syscall_cpp.hpp **** 
  36:src/../test/../h/syscall_cpp.hpp **** private:
  37:src/../test/../h/syscall_cpp.hpp ****     sem_t myHandle;
  38:src/../test/../h/syscall_cpp.hpp **** };
  39:src/../test/../h/syscall_cpp.hpp **** class PeriodicThread: public Thread{
  40:src/../test/../h/syscall_cpp.hpp **** protected:
  41:src/../test/../h/syscall_cpp.hpp ****     PeriodicThread(time_t period);
  42:src/../test/../h/syscall_cpp.hpp ****     virtual void periodicActivation(){}
  38              		.loc 1 42 18 is_stmt 1
  39              		.cfi_startproc
  40              	.LVL1:
  41 0000 130101FF 		addi	sp,sp,-16
  42              		.cfi_def_cfa_offset 16
  43 0004 23348100 		sd	s0,8(sp)
  44              		.cfi_offset 8, -8
  45 0008 13040101 		addi	s0,sp,16
  46              		.cfi_def_cfa 8, 0
  47              		.loc 1 42 39 is_stmt 0
  48 000c 03348100 		ld	s0,8(sp)
  49              		.cfi_restore 8
  50              		.cfi_def_cfa 2, 16
  51 0010 13010101 		addi	sp,sp,16
  52              		.cfi_def_cfa_offset 0
  53 0014 67800000 		jr	ra
  54              		.cfi_endproc
  55              	.LFE34:
  57              		.section	.rodata._ZN7WorkerB18periodicActivationEv.str1.8,"aMS",@progbits,1
  58              		.align	3
  59              	.LC0:
  60 0000 423A2069 		.string	"B: i="
  60      3D00
  61 0006 0000     		.align	3
  62              	.LC1:
  63 0008 0A00     		.string	"\n"
  64              		.section	.text._ZN7WorkerB18periodicActivationEv,"axG",@progbits,_ZN7WorkerB18periodicActivationEv
  65              		.align	2
  66              		.weak	_ZN7WorkerB18periodicActivationEv
  68              	_ZN7WorkerB18periodicActivationEv:
  69              	.LFB46:
  70              		.file 2 "src/../test/mod.hpp"
   1:src/../test/mod.hpp **** //
   2:src/../test/mod.hpp **** // Created by os on 9/2/22.
   3:src/../test/mod.hpp **** //
   4:src/../test/mod.hpp **** 
   5:src/../test/mod.hpp **** #ifndef PROJECT_BASE_V1_1_MOD_HPP
   6:src/../test/mod.hpp **** #define PROJECT_BASE_V1_1_MOD_HPP
GAS LISTING /tmp/ccy9Y6Ap.s 			page 3


   7:src/../test/mod.hpp **** 
   8:src/../test/mod.hpp **** #include "../h/syscall_cpp.hpp"
   9:src/../test/mod.hpp **** 
  10:src/../test/mod.hpp **** #include "printing.hpp"
  11:src/../test/mod.hpp **** bool finishedA = false;
  12:src/../test/mod.hpp **** bool finishedB = false;
  13:src/../test/mod.hpp **** bool finishedC = false;
  14:src/../test/mod.hpp **** 
  15:src/../test/mod.hpp **** 
  16:src/../test/mod.hpp **** class WorkerA: public PeriodicThread {
  17:src/../test/mod.hpp **** 
  18:src/../test/mod.hpp **** public:
  19:src/../test/mod.hpp ****     WorkerA():PeriodicThread(5) {}
  20:src/../test/mod.hpp **** 
  21:src/../test/mod.hpp ****     void periodicActivation() override {
  22:src/../test/mod.hpp ****         int id=getThreadId();
  23:src/../test/mod.hpp ****         printString("A: i=");
  24:src/../test/mod.hpp ****         printInt(id);
  25:src/../test/mod.hpp ****         printString("\n");
  26:src/../test/mod.hpp ****     }
  27:src/../test/mod.hpp **** };
  28:src/../test/mod.hpp **** 
  29:src/../test/mod.hpp **** class WorkerB: public PeriodicThread {
  30:src/../test/mod.hpp **** 
  31:src/../test/mod.hpp **** public:
  32:src/../test/mod.hpp ****     WorkerB():PeriodicThread(5) {}
  33:src/../test/mod.hpp **** 
  34:src/../test/mod.hpp ****     void periodicActivation() override {
  71              		.loc 2 34 10 is_stmt 1
  72              		.cfi_startproc
  73              	.LVL2:
  74 0000 130101FE 		addi	sp,sp,-32
  75              		.cfi_def_cfa_offset 32
  76 0004 233C1100 		sd	ra,24(sp)
  77 0008 23388100 		sd	s0,16(sp)
  78 000c 23349100 		sd	s1,8(sp)
  79              		.cfi_offset 1, -8
  80              		.cfi_offset 8, -16
  81              		.cfi_offset 9, -24
  82 0010 13040102 		addi	s0,sp,32
  83              		.cfi_def_cfa 8, 0
  35:src/../test/mod.hpp ****         int id=getThreadId();
  84              		.loc 2 35 9
  85              		.loc 2 35 27 is_stmt 0
  86 0014 97000000 		call	_Z11getThreadIdv@plt
  86      E7800000 
  87              	.LVL3:
  88 001c 93040500 		mv	s1,a0
  89              	.LVL4:
  36:src/../test/mod.hpp ****         printString("B: i=");
  90              		.loc 2 36 9 is_stmt 1
  91              		.loc 2 36 20 is_stmt 0
  92 0020 17050000 		lla	a0,.LC0
  92      13050500 
  93 0028 97000000 		call	_Z11printStringPKc@plt
  93      E7800000 
  94              	.LVL5:
GAS LISTING /tmp/ccy9Y6Ap.s 			page 4


  37:src/../test/mod.hpp ****         printInt(id);
  95              		.loc 2 37 9 is_stmt 1
  96              		.loc 2 37 17 is_stmt 0
  97 0030 13060000 		li	a2,0
  98 0034 9305A000 		li	a1,10
  99 0038 13850400 		mv	a0,s1
 100 003c 97000000 		call	_Z8printIntiii@plt
 100      E7800000 
 101              	.LVL6:
  38:src/../test/mod.hpp ****         printString("\n");
 102              		.loc 2 38 9 is_stmt 1
 103              		.loc 2 38 20 is_stmt 0
 104 0044 17050000 		lla	a0,.LC1
 104      13050500 
 105 004c 97000000 		call	_Z11printStringPKc@plt
 105      E7800000 
 106              	.LVL7:
  39:src/../test/mod.hpp ****     }
 107              		.loc 2 39 5
 108 0054 83308101 		ld	ra,24(sp)
 109              		.cfi_restore 1
 110 0058 03340101 		ld	s0,16(sp)
 111              		.cfi_restore 8
 112              		.cfi_def_cfa 2, 32
 113 005c 83348100 		ld	s1,8(sp)
 114              		.cfi_restore 9
 115              	.LVL8:
 116 0060 13010102 		addi	sp,sp,32
 117              		.cfi_def_cfa_offset 0
 118 0064 67800000 		jr	ra
 119              		.cfi_endproc
 120              	.LFE46:
 122              		.section	.rodata._ZN7WorkerA18periodicActivationEv.str1.8,"aMS",@progbits,1
 123              		.align	3
 124              	.LC2:
 125 0000 413A2069 		.string	"A: i="
 125      3D00
 126              		.section	.text._ZN7WorkerA18periodicActivationEv,"axG",@progbits,_ZN7WorkerA18periodicActivationEv
 127              		.align	2
 128              		.weak	_ZN7WorkerA18periodicActivationEv
 130              	_ZN7WorkerA18periodicActivationEv:
 131              	.LFB42:
  21:src/../test/mod.hpp ****         int id=getThreadId();
 132              		.loc 2 21 10 is_stmt 1
 133              		.cfi_startproc
 134              	.LVL9:
 135 0000 130101FE 		addi	sp,sp,-32
 136              		.cfi_def_cfa_offset 32
 137 0004 233C1100 		sd	ra,24(sp)
 138 0008 23388100 		sd	s0,16(sp)
 139 000c 23349100 		sd	s1,8(sp)
 140              		.cfi_offset 1, -8
 141              		.cfi_offset 8, -16
 142              		.cfi_offset 9, -24
 143 0010 13040102 		addi	s0,sp,32
 144              		.cfi_def_cfa 8, 0
  22:src/../test/mod.hpp ****         printString("A: i=");
GAS LISTING /tmp/ccy9Y6Ap.s 			page 5


 145              		.loc 2 22 9
  22:src/../test/mod.hpp ****         printString("A: i=");
 146              		.loc 2 22 27 is_stmt 0
 147 0014 97000000 		call	_Z11getThreadIdv@plt
 147      E7800000 
 148              	.LVL10:
 149 001c 93040500 		mv	s1,a0
 150              	.LVL11:
  23:src/../test/mod.hpp ****         printInt(id);
 151              		.loc 2 23 9 is_stmt 1
  23:src/../test/mod.hpp ****         printInt(id);
 152              		.loc 2 23 20 is_stmt 0
 153 0020 17050000 		lla	a0,.LC2
 153      13050500 
 154 0028 97000000 		call	_Z11printStringPKc@plt
 154      E7800000 
 155              	.LVL12:
  24:src/../test/mod.hpp ****         printString("\n");
 156              		.loc 2 24 9 is_stmt 1
  24:src/../test/mod.hpp ****         printString("\n");
 157              		.loc 2 24 17 is_stmt 0
 158 0030 13060000 		li	a2,0
 159 0034 9305A000 		li	a1,10
 160 0038 13850400 		mv	a0,s1
 161 003c 97000000 		call	_Z8printIntiii@plt
 161      E7800000 
 162              	.LVL13:
  25:src/../test/mod.hpp ****     }
 163              		.loc 2 25 9 is_stmt 1
  25:src/../test/mod.hpp ****     }
 164              		.loc 2 25 20 is_stmt 0
 165 0044 17050000 		lla	a0,.LC1
 165      13050500 
 166 004c 97000000 		call	_Z11printStringPKc@plt
 166      E7800000 
 167              	.LVL14:
  26:src/../test/mod.hpp **** };
 168              		.loc 2 26 5
 169 0054 83308101 		ld	ra,24(sp)
 170              		.cfi_restore 1
 171 0058 03340101 		ld	s0,16(sp)
 172              		.cfi_restore 8
 173              		.cfi_def_cfa 2, 32
 174 005c 83348100 		ld	s1,8(sp)
 175              		.cfi_restore 9
 176              	.LVL15:
 177 0060 13010102 		addi	sp,sp,32
 178              		.cfi_def_cfa_offset 0
 179 0064 67800000 		jr	ra
 180              		.cfi_endproc
 181              	.LFE42:
 183              		.section	.rodata._ZN7WorkerC18periodicActivationEv.str1.8,"aMS",@progbits,1
 184              		.align	3
 185              	.LC3:
 186 0000 433A2069 		.string	"C: i="
 186      3D00
 187              		.section	.text._ZN7WorkerC18periodicActivationEv,"axG",@progbits,_ZN7WorkerC18periodicActivationEv
GAS LISTING /tmp/ccy9Y6Ap.s 			page 6


 188              		.align	2
 189              		.weak	_ZN7WorkerC18periodicActivationEv
 191              	_ZN7WorkerC18periodicActivationEv:
 192              	.LFB50:
  40:src/../test/mod.hpp **** };
  41:src/../test/mod.hpp **** 
  42:src/../test/mod.hpp **** class WorkerC: public PeriodicThread {
  43:src/../test/mod.hpp **** 
  44:src/../test/mod.hpp **** public:
  45:src/../test/mod.hpp ****     WorkerC():PeriodicThread(5) {}
  46:src/../test/mod.hpp **** 
  47:src/../test/mod.hpp ****     void periodicActivation() override {
 193              		.loc 2 47 10 is_stmt 1
 194              		.cfi_startproc
 195              	.LVL16:
 196 0000 130101FE 		addi	sp,sp,-32
 197              		.cfi_def_cfa_offset 32
 198 0004 233C1100 		sd	ra,24(sp)
 199 0008 23388100 		sd	s0,16(sp)
 200 000c 23349100 		sd	s1,8(sp)
 201              		.cfi_offset 1, -8
 202              		.cfi_offset 8, -16
 203              		.cfi_offset 9, -24
 204 0010 13040102 		addi	s0,sp,32
 205              		.cfi_def_cfa 8, 0
  48:src/../test/mod.hpp ****         int id=getThreadId();
 206              		.loc 2 48 9
 207              		.loc 2 48 27 is_stmt 0
 208 0014 97000000 		call	_Z11getThreadIdv@plt
 208      E7800000 
 209              	.LVL17:
 210 001c 93040500 		mv	s1,a0
 211              	.LVL18:
  49:src/../test/mod.hpp ****         printString("C: i=");
 212              		.loc 2 49 9 is_stmt 1
 213              		.loc 2 49 20 is_stmt 0
 214 0020 17050000 		lla	a0,.LC3
 214      13050500 
 215 0028 97000000 		call	_Z11printStringPKc@plt
 215      E7800000 
 216              	.LVL19:
  50:src/../test/mod.hpp ****         printInt(id);
 217              		.loc 2 50 9 is_stmt 1
 218              		.loc 2 50 17 is_stmt 0
 219 0030 13060000 		li	a2,0
 220 0034 9305A000 		li	a1,10
 221 0038 13850400 		mv	a0,s1
 222 003c 97000000 		call	_Z8printIntiii@plt
 222      E7800000 
 223              	.LVL20:
  51:src/../test/mod.hpp ****         printString("\n");
 224              		.loc 2 51 9 is_stmt 1
 225              		.loc 2 51 20 is_stmt 0
 226 0044 17050000 		lla	a0,.LC1
 226      13050500 
 227 004c 97000000 		call	_Z11printStringPKc@plt
 227      E7800000 
GAS LISTING /tmp/ccy9Y6Ap.s 			page 7


 228              	.LVL21:
  52:src/../test/mod.hpp ****     }
 229              		.loc 2 52 5
 230 0054 83308101 		ld	ra,24(sp)
 231              		.cfi_restore 1
 232 0058 03340101 		ld	s0,16(sp)
 233              		.cfi_restore 8
 234              		.cfi_def_cfa 2, 32
 235 005c 83348100 		ld	s1,8(sp)
 236              		.cfi_restore 9
 237              	.LVL22:
 238 0060 13010102 		addi	sp,sp,32
 239              		.cfi_def_cfa_offset 0
 240 0064 67800000 		jr	ra
 241              		.cfi_endproc
 242              	.LFE50:
 244              		.section	.text._ZN14PeriodicThreadD2Ev,"axG",@progbits,_ZN14PeriodicThreadD5Ev,comdat
 245              		.align	2
 246              		.weak	_ZN14PeriodicThreadD2Ev
 248              	_ZN14PeriodicThreadD2Ev:
 249              	.LFB37:
  39:src/../test/../h/syscall_cpp.hpp **** protected:
 250              		.loc 1 39 7 is_stmt 1
 251              		.cfi_startproc
 252              	.LVL23:
 253 0000 130101FF 		addi	sp,sp,-16
 254              		.cfi_def_cfa_offset 16
 255 0004 23341100 		sd	ra,8(sp)
 256 0008 23308100 		sd	s0,0(sp)
 257              		.cfi_offset 1, -8
 258              		.cfi_offset 8, -16
 259 000c 13040101 		addi	s0,sp,16
 260              		.cfi_def_cfa 8, 0
 261              	.LBB44:
  39:src/../test/../h/syscall_cpp.hpp **** protected:
 262              		.loc 1 39 7 is_stmt 0
 263 0010 97070000 		lla	a5,_ZTV14PeriodicThread+16
 263      93870700 
 264 0018 2330F500 		sd	a5,0(a0)
 265 001c 97000000 		call	_ZN6ThreadD2Ev@plt
 265      E7800000 
 266              	.LVL24:
 267              	.LBE44:
 268 0024 83308100 		ld	ra,8(sp)
 269              		.cfi_restore 1
 270 0028 03340100 		ld	s0,0(sp)
 271              		.cfi_restore 8
 272              		.cfi_def_cfa 2, 16
 273 002c 13010101 		addi	sp,sp,16
 274              		.cfi_def_cfa_offset 0
 275 0030 67800000 		jr	ra
 276              		.cfi_endproc
 277              	.LFE37:
 279              		.weak	_ZN14PeriodicThreadD1Ev
 280              		.set	_ZN14PeriodicThreadD1Ev,_ZN14PeriodicThreadD2Ev
 281              		.section	.text._ZN14PeriodicThreadD0Ev,"axG",@progbits,_ZN14PeriodicThreadD5Ev,comdat
 282              		.align	2
GAS LISTING /tmp/ccy9Y6Ap.s 			page 8


 283              		.weak	_ZN14PeriodicThreadD0Ev
 285              	_ZN14PeriodicThreadD0Ev:
 286              	.LFB39:
  39:src/../test/../h/syscall_cpp.hpp **** protected:
 287              		.loc 1 39 7 is_stmt 1
 288              		.cfi_startproc
 289              	.LVL25:
 290 0000 130101FE 		addi	sp,sp,-32
 291              		.cfi_def_cfa_offset 32
 292 0004 233C1100 		sd	ra,24(sp)
 293 0008 23388100 		sd	s0,16(sp)
 294 000c 23349100 		sd	s1,8(sp)
 295              		.cfi_offset 1, -8
 296              		.cfi_offset 8, -16
 297              		.cfi_offset 9, -24
 298 0010 13040102 		addi	s0,sp,32
 299              		.cfi_def_cfa 8, 0
 300 0014 93040500 		mv	s1,a0
 301              	.LVL26:
 302              	.LBB45:
 303              	.LBB46:
  39:src/../test/../h/syscall_cpp.hpp **** protected:
 304              		.loc 1 39 7 is_stmt 0
 305 0018 97070000 		lla	a5,_ZTV14PeriodicThread+16
 305      93870700 
 306 0020 2330F500 		sd	a5,0(a0)
 307 0024 97000000 		call	_ZN6ThreadD2Ev@plt
 307      E7800000 
 308              	.LVL27:
 309              	.LBE46:
 310              	.LBE45:
 311 002c 13850400 		mv	a0,s1
 312 0030 97000000 		call	_ZdlPv@plt
 312      E7800000 
 313              	.LVL28:
 314 0038 83308101 		ld	ra,24(sp)
 315              		.cfi_restore 1
 316 003c 03340101 		ld	s0,16(sp)
 317              		.cfi_restore 8
 318              		.cfi_def_cfa 2, 32
 319 0040 83348100 		ld	s1,8(sp)
 320              		.cfi_restore 9
 321              	.LVL29:
 322 0044 13010102 		addi	sp,sp,32
 323              		.cfi_def_cfa_offset 0
 324 0048 67800000 		jr	ra
 325              		.cfi_endproc
 326              	.LFE39:
 328              		.section	.text._ZN7WorkerBD2Ev,"axG",@progbits,_ZN7WorkerBD5Ev,comdat
 329              		.align	2
 330              		.weak	_ZN7WorkerBD2Ev
 332              	_ZN7WorkerBD2Ev:
 333              	.LFB61:
  29:src/../test/mod.hpp **** 
 334              		.loc 2 29 7 is_stmt 1
 335              		.cfi_startproc
 336              	.LVL30:
GAS LISTING /tmp/ccy9Y6Ap.s 			page 9


 337 0000 130101FF 		addi	sp,sp,-16
 338              		.cfi_def_cfa_offset 16
 339 0004 23341100 		sd	ra,8(sp)
 340 0008 23308100 		sd	s0,0(sp)
 341              		.cfi_offset 1, -8
 342              		.cfi_offset 8, -16
 343 000c 13040101 		addi	s0,sp,16
 344              		.cfi_def_cfa 8, 0
 345              	.LVL31:
 346              	.LBB47:
 347              	.LBB48:
  39:src/../test/../h/syscall_cpp.hpp **** protected:
 348              		.loc 1 39 7 is_stmt 0
 349 0010 97070000 		lla	a5,_ZTV14PeriodicThread+16
 349      93870700 
 350 0018 2330F500 		sd	a5,0(a0)
 351 001c 97000000 		call	_ZN6ThreadD2Ev@plt
 351      E7800000 
 352              	.LVL32:
 353              	.LBE48:
 354              	.LBE47:
  29:src/../test/mod.hpp **** 
 355              		.loc 2 29 7
 356 0024 83308100 		ld	ra,8(sp)
 357              		.cfi_restore 1
 358 0028 03340100 		ld	s0,0(sp)
 359              		.cfi_restore 8
 360              		.cfi_def_cfa 2, 16
 361 002c 13010101 		addi	sp,sp,16
 362              		.cfi_def_cfa_offset 0
 363 0030 67800000 		jr	ra
 364              		.cfi_endproc
 365              	.LFE61:
 367              		.weak	_ZN7WorkerBD1Ev
 368              		.set	_ZN7WorkerBD1Ev,_ZN7WorkerBD2Ev
 369              		.section	.text._ZN7WorkerBD0Ev,"axG",@progbits,_ZN7WorkerBD5Ev,comdat
 370              		.align	2
 371              		.weak	_ZN7WorkerBD0Ev
 373              	_ZN7WorkerBD0Ev:
 374              	.LFB63:
  29:src/../test/mod.hpp **** 
 375              		.loc 2 29 7 is_stmt 1
 376              		.cfi_startproc
 377              	.LVL33:
 378 0000 130101FE 		addi	sp,sp,-32
 379              		.cfi_def_cfa_offset 32
 380 0004 233C1100 		sd	ra,24(sp)
 381 0008 23388100 		sd	s0,16(sp)
 382 000c 23349100 		sd	s1,8(sp)
 383              		.cfi_offset 1, -8
 384              		.cfi_offset 8, -16
 385              		.cfi_offset 9, -24
 386 0010 13040102 		addi	s0,sp,32
 387              		.cfi_def_cfa 8, 0
 388 0014 93040500 		mv	s1,a0
 389              	.LVL34:
 390              	.LBB49:
GAS LISTING /tmp/ccy9Y6Ap.s 			page 10


 391              	.LBB50:
 392              	.LBB51:
  39:src/../test/../h/syscall_cpp.hpp **** protected:
 393              		.loc 1 39 7 is_stmt 0
 394 0018 97070000 		lla	a5,_ZTV14PeriodicThread+16
 394      93870700 
 395 0020 2330F500 		sd	a5,0(a0)
 396 0024 97000000 		call	_ZN6ThreadD2Ev@plt
 396      E7800000 
 397              	.LVL35:
 398              	.LBE51:
 399              	.LBE50:
 400              	.LBE49:
  29:src/../test/mod.hpp **** 
 401              		.loc 2 29 7
 402 002c 13850400 		mv	a0,s1
 403 0030 97000000 		call	_ZdlPv@plt
 403      E7800000 
 404              	.LVL36:
 405 0038 83308101 		ld	ra,24(sp)
 406              		.cfi_restore 1
 407 003c 03340101 		ld	s0,16(sp)
 408              		.cfi_restore 8
 409              		.cfi_def_cfa 2, 32
 410 0040 83348100 		ld	s1,8(sp)
 411              		.cfi_restore 9
 412              	.LVL37:
 413 0044 13010102 		addi	sp,sp,32
 414              		.cfi_def_cfa_offset 0
 415 0048 67800000 		jr	ra
 416              		.cfi_endproc
 417              	.LFE63:
 419              		.section	.text._ZN7WorkerAD2Ev,"axG",@progbits,_ZN7WorkerAD5Ev,comdat
 420              		.align	2
 421              		.weak	_ZN7WorkerAD2Ev
 423              	_ZN7WorkerAD2Ev:
 424              	.LFB65:
  16:src/../test/mod.hpp **** 
 425              		.loc 2 16 7 is_stmt 1
 426              		.cfi_startproc
 427              	.LVL38:
 428 0000 130101FF 		addi	sp,sp,-16
 429              		.cfi_def_cfa_offset 16
 430 0004 23341100 		sd	ra,8(sp)
 431 0008 23308100 		sd	s0,0(sp)
 432              		.cfi_offset 1, -8
 433              		.cfi_offset 8, -16
 434 000c 13040101 		addi	s0,sp,16
 435              		.cfi_def_cfa 8, 0
 436              	.LVL39:
 437              	.LBB52:
 438              	.LBB53:
  39:src/../test/../h/syscall_cpp.hpp **** protected:
 439              		.loc 1 39 7 is_stmt 0
 440 0010 97070000 		lla	a5,_ZTV14PeriodicThread+16
 440      93870700 
 441 0018 2330F500 		sd	a5,0(a0)
GAS LISTING /tmp/ccy9Y6Ap.s 			page 11


 442 001c 97000000 		call	_ZN6ThreadD2Ev@plt
 442      E7800000 
 443              	.LVL40:
 444              	.LBE53:
 445              	.LBE52:
  16:src/../test/mod.hpp **** 
 446              		.loc 2 16 7
 447 0024 83308100 		ld	ra,8(sp)
 448              		.cfi_restore 1
 449 0028 03340100 		ld	s0,0(sp)
 450              		.cfi_restore 8
 451              		.cfi_def_cfa 2, 16
 452 002c 13010101 		addi	sp,sp,16
 453              		.cfi_def_cfa_offset 0
 454 0030 67800000 		jr	ra
 455              		.cfi_endproc
 456              	.LFE65:
 458              		.weak	_ZN7WorkerAD1Ev
 459              		.set	_ZN7WorkerAD1Ev,_ZN7WorkerAD2Ev
 460              		.section	.text._ZN7WorkerAD0Ev,"axG",@progbits,_ZN7WorkerAD5Ev,comdat
 461              		.align	2
 462              		.weak	_ZN7WorkerAD0Ev
 464              	_ZN7WorkerAD0Ev:
 465              	.LFB67:
  16:src/../test/mod.hpp **** 
 466              		.loc 2 16 7 is_stmt 1
 467              		.cfi_startproc
 468              	.LVL41:
 469 0000 130101FE 		addi	sp,sp,-32
 470              		.cfi_def_cfa_offset 32
 471 0004 233C1100 		sd	ra,24(sp)
 472 0008 23388100 		sd	s0,16(sp)
 473 000c 23349100 		sd	s1,8(sp)
 474              		.cfi_offset 1, -8
 475              		.cfi_offset 8, -16
 476              		.cfi_offset 9, -24
 477 0010 13040102 		addi	s0,sp,32
 478              		.cfi_def_cfa 8, 0
 479 0014 93040500 		mv	s1,a0
 480              	.LVL42:
 481              	.LBB54:
 482              	.LBB55:
 483              	.LBB56:
  39:src/../test/../h/syscall_cpp.hpp **** protected:
 484              		.loc 1 39 7 is_stmt 0
 485 0018 97070000 		lla	a5,_ZTV14PeriodicThread+16
 485      93870700 
 486 0020 2330F500 		sd	a5,0(a0)
 487 0024 97000000 		call	_ZN6ThreadD2Ev@plt
 487      E7800000 
 488              	.LVL43:
 489              	.LBE56:
 490              	.LBE55:
 491              	.LBE54:
  16:src/../test/mod.hpp **** 
 492              		.loc 2 16 7
 493 002c 13850400 		mv	a0,s1
GAS LISTING /tmp/ccy9Y6Ap.s 			page 12


 494 0030 97000000 		call	_ZdlPv@plt
 494      E7800000 
 495              	.LVL44:
 496 0038 83308101 		ld	ra,24(sp)
 497              		.cfi_restore 1
 498 003c 03340101 		ld	s0,16(sp)
 499              		.cfi_restore 8
 500              		.cfi_def_cfa 2, 32
 501 0040 83348100 		ld	s1,8(sp)
 502              		.cfi_restore 9
 503              	.LVL45:
 504 0044 13010102 		addi	sp,sp,32
 505              		.cfi_def_cfa_offset 0
 506 0048 67800000 		jr	ra
 507              		.cfi_endproc
 508              	.LFE67:
 510              		.section	.text._ZN7WorkerCD2Ev,"axG",@progbits,_ZN7WorkerCD5Ev,comdat
 511              		.align	2
 512              		.weak	_ZN7WorkerCD2Ev
 514              	_ZN7WorkerCD2Ev:
 515              	.LFB57:
  42:src/../test/mod.hpp **** 
 516              		.loc 2 42 7 is_stmt 1
 517              		.cfi_startproc
 518              	.LVL46:
 519 0000 130101FF 		addi	sp,sp,-16
 520              		.cfi_def_cfa_offset 16
 521 0004 23341100 		sd	ra,8(sp)
 522 0008 23308100 		sd	s0,0(sp)
 523              		.cfi_offset 1, -8
 524              		.cfi_offset 8, -16
 525 000c 13040101 		addi	s0,sp,16
 526              		.cfi_def_cfa 8, 0
 527              	.LVL47:
 528              	.LBB57:
 529              	.LBB58:
  39:src/../test/../h/syscall_cpp.hpp **** protected:
 530              		.loc 1 39 7 is_stmt 0
 531 0010 97070000 		lla	a5,_ZTV14PeriodicThread+16
 531      93870700 
 532 0018 2330F500 		sd	a5,0(a0)
 533 001c 97000000 		call	_ZN6ThreadD2Ev@plt
 533      E7800000 
 534              	.LVL48:
 535              	.LBE58:
 536              	.LBE57:
  42:src/../test/mod.hpp **** 
 537              		.loc 2 42 7
 538 0024 83308100 		ld	ra,8(sp)
 539              		.cfi_restore 1
 540 0028 03340100 		ld	s0,0(sp)
 541              		.cfi_restore 8
 542              		.cfi_def_cfa 2, 16
 543 002c 13010101 		addi	sp,sp,16
 544              		.cfi_def_cfa_offset 0
 545 0030 67800000 		jr	ra
 546              		.cfi_endproc
GAS LISTING /tmp/ccy9Y6Ap.s 			page 13


 547              	.LFE57:
 549              		.weak	_ZN7WorkerCD1Ev
 550              		.set	_ZN7WorkerCD1Ev,_ZN7WorkerCD2Ev
 551              		.section	.text._ZN7WorkerCD0Ev,"axG",@progbits,_ZN7WorkerCD5Ev,comdat
 552              		.align	2
 553              		.weak	_ZN7WorkerCD0Ev
 555              	_ZN7WorkerCD0Ev:
 556              	.LFB59:
  42:src/../test/mod.hpp **** 
 557              		.loc 2 42 7 is_stmt 1
 558              		.cfi_startproc
 559              	.LVL49:
 560 0000 130101FE 		addi	sp,sp,-32
 561              		.cfi_def_cfa_offset 32
 562 0004 233C1100 		sd	ra,24(sp)
 563 0008 23388100 		sd	s0,16(sp)
 564 000c 23349100 		sd	s1,8(sp)
 565              		.cfi_offset 1, -8
 566              		.cfi_offset 8, -16
 567              		.cfi_offset 9, -24
 568 0010 13040102 		addi	s0,sp,32
 569              		.cfi_def_cfa 8, 0
 570 0014 93040500 		mv	s1,a0
 571              	.LVL50:
 572              	.LBB59:
 573              	.LBB60:
 574              	.LBB61:
  39:src/../test/../h/syscall_cpp.hpp **** protected:
 575              		.loc 1 39 7 is_stmt 0
 576 0018 97070000 		lla	a5,_ZTV14PeriodicThread+16
 576      93870700 
 577 0020 2330F500 		sd	a5,0(a0)
 578 0024 97000000 		call	_ZN6ThreadD2Ev@plt
 578      E7800000 
 579              	.LVL51:
 580              	.LBE61:
 581              	.LBE60:
 582              	.LBE59:
  42:src/../test/mod.hpp **** 
 583              		.loc 2 42 7
 584 002c 13850400 		mv	a0,s1
 585 0030 97000000 		call	_ZdlPv@plt
 585      E7800000 
 586              	.LVL52:
 587 0038 83308101 		ld	ra,24(sp)
 588              		.cfi_restore 1
 589 003c 03340101 		ld	s0,16(sp)
 590              		.cfi_restore 8
 591              		.cfi_def_cfa 2, 32
 592 0040 83348100 		ld	s1,8(sp)
 593              		.cfi_restore 9
 594              	.LVL53:
 595 0044 13010102 		addi	sp,sp,32
 596              		.cfi_def_cfa_offset 0
 597 0048 67800000 		jr	ra
 598              		.cfi_endproc
 599              	.LFE59:
GAS LISTING /tmp/ccy9Y6Ap.s 			page 14


 601              		.section	.rodata.str1.8,"aMS",@progbits,1
 602              		.align	3
 603              	.LC4:
 604 0000 54687265 		.string	"ThreadB created\n"
 604      61644220 
 604      63726561 
 604      7465640A 
 604      00
 605 0011 00000000 		.align	3
 605      000000
 606              	.LC5:
 607 0018 54687265 		.string	"ThreadA created\n"
 607      61644120 
 607      63726561 
 607      7465640A 
 607      00
 608 0029 00000000 		.align	3
 608      000000
 609              	.LC6:
 610 0030 54687265 		.string	"ThreadC created\n"
 610      61644320 
 610      63726561 
 610      7465640A 
 610      00
 611              		.text
 612              		.align	2
 613              		.globl	_Z7Threadsv
 615              	_Z7Threadsv:
 616              	.LFB51:
  53:src/../test/mod.hpp **** };
  54:src/../test/mod.hpp **** 
  55:src/../test/mod.hpp **** 
  56:src/../test/mod.hpp **** 
  57:src/../test/mod.hpp **** void Threads() {
 617              		.loc 2 57 16 is_stmt 1
 618              		.cfi_startproc
 619              		.cfi_personality 0x9b,DW.ref.__gxx_personality_v0
 620              		.cfi_lsda 0x1b,.LLSDA51
 621 0000 130101FC 		addi	sp,sp,-64
 622              		.cfi_def_cfa_offset 64
 623 0004 233C1102 		sd	ra,56(sp)
 624 0008 23388102 		sd	s0,48(sp)
 625 000c 23349102 		sd	s1,40(sp)
 626 0010 23302103 		sd	s2,32(sp)
 627              		.cfi_offset 1, -8
 628              		.cfi_offset 8, -16
 629              		.cfi_offset 9, -24
 630              		.cfi_offset 18, -32
 631 0014 13040104 		addi	s0,sp,64
 632              		.cfi_def_cfa 8, 0
  58:src/../test/mod.hpp ****     PeriodicThread* threads[3];
 633              		.loc 2 58 5
  59:src/../test/mod.hpp ****     threads[0] = new WorkerB();
 634              		.loc 2 59 5
 635              		.loc 2 59 30 is_stmt 0
 636 0018 13058001 		li	a0,24
 637              	.LEHB0:
GAS LISTING /tmp/ccy9Y6Ap.s 			page 15


 638 001c 97000000 		call	_Znwm@plt
 638      E7800000 
 639              	.LVL54:
 640              	.LEHE0:
 641 0024 93040500 		mv	s1,a0
 642              	.LVL55:
 643              	.LBB62:
 644              	.LBB63:
  32:src/../test/mod.hpp **** 
 645              		.loc 2 32 31
 646 0028 93055000 		li	a1,5
 647              	.LEHB1:
 648 002c 97000000 		call	_ZN14PeriodicThreadC2Em@plt
 648      E7800000 
 649              	.LVL56:
 650              	.LEHE1:
 651 0034 97070000 		lla	a5,_ZTV7WorkerB+16
 651      93870700 
 652 003c 23B0F400 		sd	a5,0(s1)
 653              	.LVL57:
 654              	.LBE63:
 655              	.LBE62:
 656              		.loc 2 59 16
 657 0040 233494FC 		sd	s1,-56(s0)
  60:src/../test/mod.hpp ****     printString("ThreadB created\n");
 658              		.loc 2 60 5 is_stmt 1
 659              		.loc 2 60 16 is_stmt 0
 660 0044 17050000 		lla	a0,.LC4
 660      13050500 
 661              	.LEHB2:
 662 004c 97000000 		call	_Z11printStringPKc@plt
 662      E7800000 
 663              	.LVL58:
  61:src/../test/mod.hpp **** 
  62:src/../test/mod.hpp ****     threads[2] = new WorkerA();
 664              		.loc 2 62 5 is_stmt 1
 665              		.loc 2 62 30 is_stmt 0
 666 0054 13058001 		li	a0,24
 667 0058 97000000 		call	_Znwm@plt
 667      E7800000 
 668              	.LVL59:
 669              	.LEHE2:
 670 0060 93040500 		mv	s1,a0
 671              	.LVL60:
 672              	.LBB64:
 673              	.LBB65:
  19:src/../test/mod.hpp **** 
 674              		.loc 2 19 31
 675 0064 93055000 		li	a1,5
 676              	.LEHB3:
 677 0068 97000000 		call	_ZN14PeriodicThreadC2Em@plt
 677      E7800000 
 678              	.LVL61:
 679              	.LEHE3:
 680 0070 97070000 		lla	a5,_ZTV7WorkerA+16
 680      93870700 
 681 0078 23B0F400 		sd	a5,0(s1)
GAS LISTING /tmp/ccy9Y6Ap.s 			page 16


 682              	.LVL62:
 683              	.LBE65:
 684              	.LBE64:
 685              		.loc 2 62 16
 686 007c 233C94FC 		sd	s1,-40(s0)
  63:src/../test/mod.hpp ****     printString("ThreadA created\n");
 687              		.loc 2 63 5 is_stmt 1
 688              		.loc 2 63 16 is_stmt 0
 689 0080 17050000 		lla	a0,.LC5
 689      13050500 
 690              	.LEHB4:
 691 0088 97000000 		call	_Z11printStringPKc@plt
 691      E7800000 
 692              	.LVL63:
  64:src/../test/mod.hpp **** 
  65:src/../test/mod.hpp ****     threads[1] = new WorkerC();
 693              		.loc 2 65 5 is_stmt 1
 694              		.loc 2 65 30 is_stmt 0
 695 0090 13058001 		li	a0,24
 696 0094 97000000 		call	_Znwm@plt
 696      E7800000 
 697              	.LVL64:
 698              	.LEHE4:
 699 009c 93040500 		mv	s1,a0
 700              	.LVL65:
 701              	.LBB66:
 702              	.LBB67:
  45:src/../test/mod.hpp **** 
 703              		.loc 2 45 31
 704 00a0 93055000 		li	a1,5
 705              	.LEHB5:
 706 00a4 97000000 		call	_ZN14PeriodicThreadC2Em@plt
 706      E7800000 
 707              	.LVL66:
 708              	.LEHE5:
 709 00ac 97070000 		lla	a5,_ZTV7WorkerC+16
 709      93870700 
 710 00b4 23B0F400 		sd	a5,0(s1)
 711              	.LVL67:
 712              	.LBE67:
 713              	.LBE66:
 714              		.loc 2 65 16
 715 00b8 233894FC 		sd	s1,-48(s0)
  66:src/../test/mod.hpp ****     printString("ThreadC created\n");
 716              		.loc 2 66 5 is_stmt 1
 717              		.loc 2 66 16 is_stmt 0
 718 00bc 17050000 		lla	a0,.LC6
 718      13050500 
 719              	.LEHB6:
 720 00c4 97000000 		call	_Z11printStringPKc@plt
 720      E7800000 
 721              	.LVL68:
 722              	.LBB68:
  67:src/../test/mod.hpp **** 
  68:src/../test/mod.hpp **** 
  69:src/../test/mod.hpp **** 
  70:src/../test/mod.hpp **** 
GAS LISTING /tmp/ccy9Y6Ap.s 			page 17


  71:src/../test/mod.hpp **** 
  72:src/../test/mod.hpp ****     for(int i=0; i<3; i++) {
 723              		.loc 2 72 13
 724 00cc 93040000 		li	s1,0
 725              	.L29:
 726              	.LVL69:
 727              		.loc 2 72 19 is_stmt 1 discriminator 1
 728 00d0 93072000 		li	a5,2
 729 00d4 63C29702 		bgt	s1,a5,.L38
  73:src/../test/mod.hpp ****         threads[i]->start();
 730              		.loc 2 73 9
 731              		.loc 2 73 18 is_stmt 0
 732 00d8 93973400 		slli	a5,s1,3
 733 00dc 130704FE 		addi	a4,s0,-32
 734 00e0 B307F700 		add	a5,a4,a5
 735              		.loc 2 73 26
 736 00e4 03B587FE 		ld	a0,-24(a5)
 737 00e8 97000000 		call	_ZN6Thread5startEv@plt
 737      E7800000 
 738              	.LVL70:
  72:src/../test/mod.hpp ****         threads[i]->start();
 739              		.loc 2 72 5 is_stmt 1
 740 00f0 9B841400 		addiw	s1,s1,1
 741              	.LVL71:
 742 00f4 6FF0DFFD 		j	.L29
 743              	.LVL72:
 744              	.L38:
 745              	.LBE68:
 746              	.LBB69:
  74:src/../test/mod.hpp ****     }
  75:src/../test/mod.hpp ****     char k;
  76:src/../test/mod.hpp ****     for(int i=0;i<3;i++) {
 747              		.loc 2 76 13 is_stmt 0
 748 00f8 93040000 		li	s1,0
 749              	.LVL73:
 750 00fc 6F000002 		j	.L28
 751              	.LVL74:
 752              	.L31:
  77:src/../test/mod.hpp ****         while ((k = getc()) != 'k') {
  78:src/../test/mod.hpp ****             Thread::dispatch();
  79:src/../test/mod.hpp ****         }
  80:src/../test/mod.hpp ****         threads[i]->stopThread();
 753              		.loc 2 80 9 is_stmt 1
 754              		.loc 2 80 18 is_stmt 0
 755 0100 93973400 		slli	a5,s1,3
 756 0104 130704FE 		addi	a4,s0,-32
 757 0108 B307F700 		add	a5,a4,a5
 758              		.loc 2 80 31
 759 010c 03B587FE 		ld	a0,-24(a5)
 760              	.LVL75:
 761 0110 97000000 		call	_ZN14PeriodicThread10stopThreadEv@plt
 761      E7800000 
 762              	.LVL76:
  76:src/../test/mod.hpp ****         while ((k = getc()) != 'k') {
 763              		.loc 2 76 5 is_stmt 1
 764 0118 9B841400 		addiw	s1,s1,1
 765              	.LVL77:
GAS LISTING /tmp/ccy9Y6Ap.s 			page 18


 766              	.L28:
  76:src/../test/mod.hpp ****         while ((k = getc()) != 'k') {
 767              		.loc 2 76 18 discriminator 1
 768 011c 93072000 		li	a5,2
 769 0120 63C09702 		bgt	s1,a5,.L39
 770              	.L32:
  77:src/../test/mod.hpp ****         while ((k = getc()) != 'k') {
 771              		.loc 2 77 9
  77:src/../test/mod.hpp ****         while ((k = getc()) != 'k') {
 772              		.loc 2 77 29
  77:src/../test/mod.hpp ****         while ((k = getc()) != 'k') {
 773              		.loc 2 77 25 is_stmt 0
 774 0124 97000000 		call	_Z4getcv@plt
 774      E7800000 
 775              	.LVL78:
  77:src/../test/mod.hpp ****         while ((k = getc()) != 'k') {
 776              		.loc 2 77 29
 777 012c 9307B006 		li	a5,107
 778 0130 E308F5FC 		beq	a0,a5,.L31
  78:src/../test/mod.hpp ****         }
 779              		.loc 2 78 13 is_stmt 1
  78:src/../test/mod.hpp ****         }
 780              		.loc 2 78 29 is_stmt 0
 781 0134 97000000 		call	_ZN6Thread8dispatchEv@plt
 781      E7800000 
 782              	.LVL79:
 783 013c 6FF09FFE 		j	.L32
 784              	.L39:
 785              	.LBE69:
 786              	.LBB70:
  81:src/../test/mod.hpp ****     }
  82:src/../test/mod.hpp ****     for (auto thread: threads) { delete thread; }
 787              		.loc 2 82 23
 788 0140 930484FC 		addi	s1,s0,-56
 789              	.LVL80:
 790 0144 6F008000 		j	.L30
 791              	.LVL81:
 792              	.L34:
 793              		.loc 2 82 5 is_stmt 1 discriminator 5
 794 0148 93848400 		addi	s1,s1,8
 795              	.LVL82:
 796              	.L30:
 797              		.loc 2 82 23 discriminator 6
 798 014c 930704FE 		addi	a5,s0,-32
 799 0150 6388F406 		beq	s1,a5,.L27
 800              		.loc 2 82 15 is_stmt 0 discriminator 2
 801 0154 03B50400 		ld	a0,0(s1)
 802              	.LVL83:
 803              		.loc 2 82 34 is_stmt 1 discriminator 2
 804              		.loc 2 82 47 is_stmt 0 discriminator 2
 805 0158 E30805FE 		beqz	a0,.L34
 806              		.loc 2 82 41 discriminator 3
 807 015c 83370500 		ld	a5,0(a0)
 808 0160 83B78700 		ld	a5,8(a5)
 809 0164 E7800700 		jalr	a5
 810              	.LVL84:
 811 0168 6FF01FFE 		j	.L34
GAS LISTING /tmp/ccy9Y6Ap.s 			page 19


 812              	.LVL85:
 813              	.L40:
 814 016c 13090500 		mv	s2,a0
 815              	.LBE70:
  59:src/../test/mod.hpp ****     printString("ThreadB created\n");
 816              		.loc 2 59 30
 817 0170 13850400 		mv	a0,s1
 818 0174 97000000 		call	_ZdlPv@plt
 818      E7800000 
 819              	.LVL86:
 820 017c 13050900 		mv	a0,s2
 821 0180 97000000 		call	_Unwind_Resume@plt
 821      E7800000 
 822              	.LVL87:
 823              	.L41:
 824 0188 13090500 		mv	s2,a0
  62:src/../test/mod.hpp ****     printString("ThreadA created\n");
 825              		.loc 2 62 30
 826 018c 13850400 		mv	a0,s1
 827 0190 97000000 		call	_ZdlPv@plt
 827      E7800000 
 828              	.LVL88:
 829 0198 13050900 		mv	a0,s2
 830 019c 97000000 		call	_Unwind_Resume@plt
 830      E7800000 
 831              	.LVL89:
 832              	.L42:
 833 01a4 13090500 		mv	s2,a0
  65:src/../test/mod.hpp ****     printString("ThreadC created\n");
 834              		.loc 2 65 30
 835 01a8 13850400 		mv	a0,s1
 836 01ac 97000000 		call	_ZdlPv@plt
 836      E7800000 
 837              	.LVL90:
 838 01b4 13050900 		mv	a0,s2
 839 01b8 97000000 		call	_Unwind_Resume@plt
 839      E7800000 
 840              	.LVL91:
 841              	.LEHE6:
 842              	.L27:
  83:src/../test/mod.hpp **** }
 843              		.loc 2 83 1
 844 01c0 83308103 		ld	ra,56(sp)
 845              		.cfi_restore 1
 846 01c4 03340103 		ld	s0,48(sp)
 847              		.cfi_restore 8
 848              		.cfi_def_cfa 2, 64
 849 01c8 83348102 		ld	s1,40(sp)
 850              		.cfi_restore 9
 851              	.LVL92:
 852 01cc 03390102 		ld	s2,32(sp)
 853              		.cfi_restore 18
 854 01d0 13010104 		addi	sp,sp,64
 855              		.cfi_def_cfa_offset 0
 856 01d4 67800000 		jr	ra
 857              		.cfi_endproc
 858              	.LFE51:
GAS LISTING /tmp/ccy9Y6Ap.s 			page 20


 859              		.globl	__gxx_personality_v0
 860              		.section	.gcc_except_table,"a",@progbits
 861              	.LLSDA51:
 862 0000 FF       		.byte	0xff
 863 0001 FF       		.byte	0xff
 864 0002 03       		.byte	0x3
 865 0003 5B       		.byte	0x5b
 866 0004 00000000 		.4byte	.LEHB0-.LFB51
 867 0008 00000000 		.4byte	.LEHE0-.LEHB0
 868 000c 00000000 		.4byte	0
 869 0010 00       		.byte	0
 870 0011 00000000 		.4byte	.LEHB1-.LFB51
 871 0015 00000000 		.4byte	.LEHE1-.LEHB1
 872 0019 00000000 		.4byte	.L40-.LFB51
 873 001d 00       		.byte	0
 874 001e 00000000 		.4byte	.LEHB2-.LFB51
 875 0022 00000000 		.4byte	.LEHE2-.LEHB2
 876 0026 00000000 		.4byte	0
 877 002a 00       		.byte	0
 878 002b 00000000 		.4byte	.LEHB3-.LFB51
 879 002f 00000000 		.4byte	.LEHE3-.LEHB3
 880 0033 00000000 		.4byte	.L41-.LFB51
 881 0037 00       		.byte	0
 882 0038 00000000 		.4byte	.LEHB4-.LFB51
 883 003c 00000000 		.4byte	.LEHE4-.LEHB4
 884 0040 00000000 		.4byte	0
 885 0044 00       		.byte	0
 886 0045 00000000 		.4byte	.LEHB5-.LFB51
 887 0049 00000000 		.4byte	.LEHE5-.LEHB5
 888 004d 00000000 		.4byte	.L42-.LFB51
 889 0051 00       		.byte	0
 890 0052 00000000 		.4byte	.LEHB6-.LFB51
 891 0056 00000000 		.4byte	.LEHE6-.LEHB6
 892 005a 00000000 		.4byte	0
 893 005e 00       		.byte	0
 894              		.text
 896              		.align	2
 897              		.globl	_Z8userMainv
 899              	_Z8userMainv:
 900              	.LFB52:
 901              		.file 3 "src/userMain.cpp"
   1:src/userMain.cpp **** //#include "../test/Threads_C_API_test.hpp" // zadatak 2, niti C API i sinhrona promena konteksta
   2:src/userMain.cpp **** //#include "../test/Threads_CPP_API_test.hpp" // zadatak 2., niti CPP API i sinhrona promena kontek
   3:src/userMain.cpp **** 
   4:src/userMain.cpp **** //#include "../test/ConsumerProducer_C_API_test.h" // zadatak 3., kompletan C API sa semaforima, si
   5:src/userMain.cpp **** //#include "../test/ConsumerProducer_CPP_Sync_API_test.hpp" // zadatak 3., kompletan CPP API sa sem
   6:src/userMain.cpp **** 
   7:src/userMain.cpp **** //#include "../test/ThreadSleep_C_API_test.hpp" // thread_sleep test C API
   8:src/userMain.cpp **** //#include "../test/ConsumerProducer_CPP_API_test.hpp" // zadatak 4. CPP API i asinhrona promena ko
   9:src/userMain.cpp **** #include "../test/mod.hpp"
  10:src/userMain.cpp **** 
  11:src/userMain.cpp **** void userMain() {
 902              		.loc 3 11 17 is_stmt 1
 903              		.cfi_startproc
 904 01d8 130101FF 		addi	sp,sp,-16
 905              		.cfi_def_cfa_offset 16
 906 01dc 23341100 		sd	ra,8(sp)
GAS LISTING /tmp/ccy9Y6Ap.s 			page 21


 907 01e0 23308100 		sd	s0,0(sp)
 908              		.cfi_offset 1, -8
 909              		.cfi_offset 8, -16
 910 01e4 13040101 		addi	s0,sp,16
 911              		.cfi_def_cfa 8, 0
  12:src/userMain.cpp ****    //Threads_C_API_test(); // zadatak 2., niti C API i sinhrona promena konteksta
  13:src/userMain.cpp ****    //Threads_CPP_API_test(); // zadatak 2., niti CPP API i sinhrona promena konteksta
  14:src/userMain.cpp **** 
  15:src/userMain.cpp ****    //producerConsumer_C_API(); // zadatak 3., kompletan C API sa semaforima, sinhrona promena konte
  16:src/userMain.cpp ****     //producerConsumer_CPP_Sync_API(); // zadatak 3., kompletan CPP API sa semaforima, sinhrona pro
  17:src/userMain.cpp **** 
  18:src/userMain.cpp ****     //testSleeping(); // thread_sleep test C API
  19:src/userMain.cpp ****    // ConsumerProducerCPP::testConsumerProducer(); // zadatak 4. CPP API i asinhrona promena kontek
  20:src/userMain.cpp ****     Threads();
 912              		.loc 3 20 5
 913              		.loc 3 20 12 is_stmt 0
 914 01e8 97000000 		call	_Z7Threadsv
 914      E7800000 
 915              	.LVL93:
  21:src/userMain.cpp **** }...
 916              		.loc 3 21 1
 917 01f0 83308100 		ld	ra,8(sp)
 918              		.cfi_restore 1
 919 01f4 03340100 		ld	s0,0(sp)
 920              		.cfi_restore 8
 921              		.cfi_def_cfa 2, 16
 922 01f8 13010101 		addi	sp,sp,16
 923              		.cfi_def_cfa_offset 0
 924 01fc 67800000 		jr	ra
 925              		.cfi_endproc
 926              	.LFE52:
 928              		.weak	_ZTV14PeriodicThread
 929              		.section	.data.rel.ro.local._ZTV14PeriodicThread,"awG",@progbits,_ZTV14PeriodicThread,comdat
 930              		.align	3
 933              	_ZTV14PeriodicThread:
 934 0000 00000000 		.dword	0
 934      00000000 
 935 0008 00000000 		.dword	0
 935      00000000 
 936 0010 00000000 		.dword	_ZN14PeriodicThreadD1Ev
 936      00000000 
 937 0018 00000000 		.dword	_ZN14PeriodicThreadD0Ev
 937      00000000 
 938 0020 00000000 		.dword	_ZN6Thread3runEv
 938      00000000 
 939 0028 00000000 		.dword	_ZN14PeriodicThread18periodicActivationEv
 939      00000000 
 940              		.weak	_ZTV7WorkerA
 941              		.section	.data.rel.ro.local._ZTV7WorkerA,"awG",@progbits,_ZTV7WorkerA,comdat
 942              		.align	3
 945              	_ZTV7WorkerA:
 946 0000 00000000 		.dword	0
 946      00000000 
 947 0008 00000000 		.dword	0
 947      00000000 
 948 0010 00000000 		.dword	_ZN7WorkerAD1Ev
 948      00000000 
GAS LISTING /tmp/ccy9Y6Ap.s 			page 22


 949 0018 00000000 		.dword	_ZN7WorkerAD0Ev
 949      00000000 
 950 0020 00000000 		.dword	_ZN6Thread3runEv
 950      00000000 
 951 0028 00000000 		.dword	_ZN7WorkerA18periodicActivationEv
 951      00000000 
 952              		.weak	_ZTV7WorkerB
 953              		.section	.data.rel.ro.local._ZTV7WorkerB,"awG",@progbits,_ZTV7WorkerB,comdat
 954              		.align	3
 957              	_ZTV7WorkerB:
 958 0000 00000000 		.dword	0
 958      00000000 
 959 0008 00000000 		.dword	0
 959      00000000 
 960 0010 00000000 		.dword	_ZN7WorkerBD1Ev
 960      00000000 
 961 0018 00000000 		.dword	_ZN7WorkerBD0Ev
 961      00000000 
 962 0020 00000000 		.dword	_ZN6Thread3runEv
 962      00000000 
 963 0028 00000000 		.dword	_ZN7WorkerB18periodicActivationEv
 963      00000000 
 964              		.weak	_ZTV7WorkerC
 965              		.section	.data.rel.ro.local._ZTV7WorkerC,"awG",@progbits,_ZTV7WorkerC,comdat
 966              		.align	3
 969              	_ZTV7WorkerC:
 970 0000 00000000 		.dword	0
 970      00000000 
 971 0008 00000000 		.dword	0
 971      00000000 
 972 0010 00000000 		.dword	_ZN7WorkerCD1Ev
 972      00000000 
 973 0018 00000000 		.dword	_ZN7WorkerCD0Ev
 973      00000000 
 974 0020 00000000 		.dword	_ZN6Thread3runEv
 974      00000000 
 975 0028 00000000 		.dword	_ZN7WorkerC18periodicActivationEv
 975      00000000 
 976              		.globl	finishedC
 977              		.globl	finishedB
 978              		.globl	finishedA
 979              		.bss
 982              	finishedC:
 983 0000 00       		.zero	1
 986              	finishedB:
 987 0001 00       		.zero	1
 990              	finishedA:
 991 0002 00       		.zero	1
 992              		.text
 993              	.Letext0:
 994              		.file 4 "src/../test/../h/../lib/hw.h"
 995              		.file 5 "src/../test/../h/syscall_c.h"
 996              		.file 6 "src/../test/../h/../test/printing.hpp"
 4066              		.align	3
 4069              	DW.ref.__gxx_personality_v0:
 4070 0000 00000000 		.dword	__gxx_personality_v0
 4070      00000000 
GAS LISTING /tmp/ccy9Y6Ap.s 			page 23


 4071              		.ident	"GCC: (Ubuntu 9.4.0-1ubuntu1~20.04) 9.4.0"
 4072              		.section	.note.GNU-stack,"",@progbits
GAS LISTING /tmp/ccy9Y6Ap.s 			page 24

